
engineering.elf:     file format elf32-avr

Sections:
Idx Name          Size      VMA       LMA       File off  Algn
  0 .text         00001fca  00000000  00000000  00000094  2**1
                  CONTENTS, ALLOC, LOAD, READONLY, CODE
  1 .data         000001a4  00800060  00001fca  0000205e  2**0
                  CONTENTS, ALLOC, LOAD, DATA
  2 .bss          000000b7  00800204  00800204  00002202  2**0
                  ALLOC
  3 .comment      0000005c  00000000  00000000  00002202  2**0
                  CONTENTS, READONLY

Disassembly of section .text:

00000000 <__vectors>:
       0:	0c 94 63 00 	jmp	0xc6	; 0xc6 <__ctors_end>
       4:	0c 94 80 00 	jmp	0x100	; 0x100 <__bad_interrupt>
       8:	0c 94 80 00 	jmp	0x100	; 0x100 <__bad_interrupt>
       c:	0c 94 80 00 	jmp	0x100	; 0x100 <__bad_interrupt>
      10:	0c 94 80 00 	jmp	0x100	; 0x100 <__bad_interrupt>
      14:	0c 94 80 00 	jmp	0x100	; 0x100 <__bad_interrupt>
      18:	0c 94 80 00 	jmp	0x100	; 0x100 <__bad_interrupt>
      1c:	0c 94 80 00 	jmp	0x100	; 0x100 <__bad_interrupt>
      20:	0c 94 80 00 	jmp	0x100	; 0x100 <__bad_interrupt>
      24:	0c 94 97 0a 	jmp	0x152e	; 0x152e <__vector_9>
      28:	0c 94 80 00 	jmp	0x100	; 0x100 <__bad_interrupt>
      2c:	0c 94 80 00 	jmp	0x100	; 0x100 <__bad_interrupt>
      30:	0c 94 80 00 	jmp	0x100	; 0x100 <__bad_interrupt>
      34:	0c 94 80 00 	jmp	0x100	; 0x100 <__bad_interrupt>
      38:	0c 94 80 00 	jmp	0x100	; 0x100 <__bad_interrupt>
      3c:	0c 94 80 00 	jmp	0x100	; 0x100 <__bad_interrupt>
      40:	0c 94 80 00 	jmp	0x100	; 0x100 <__bad_interrupt>
      44:	0c 94 80 00 	jmp	0x100	; 0x100 <__bad_interrupt>
      48:	0c 94 80 00 	jmp	0x100	; 0x100 <__bad_interrupt>
      4c:	0c 94 80 00 	jmp	0x100	; 0x100 <__bad_interrupt>
      50:	0c 94 80 00 	jmp	0x100	; 0x100 <__bad_interrupt>

00000054 <M_4_1>:
      54:	4d 6f 64 69 66 79 20 70 72 6f 67 72 61 6d 00        Modify program.

00000063 <M_3_1>:
      63:	54 6f 20 73 61 76 65 20 70 72 65 73 73 20 6f 6b     To save press ok
      73:	20 00                                                .

00000075 <M_2_2>:
      75:	70 72 6f 67 72 61 6d 00                             program.

0000007d <M_2_1>:
      7d:	5a 64 65 66 69 6e 69 75 6a 00                       Zdefiniuj.

00000087 <M_1_4>:
      87:	7a 61 70 69 73 61 6e 65 00                          zapisane.

00000090 <M_1_3>:
      90:	43 7a 61 73 20 69 20 64 61 74 61 00                 Czas i data.

0000009c <M_1_2>:
      9c:	63 7a 61 73 20 69 20 64 61 74 84 00                 czas i dat..

000000a8 <M_1_1>:
      a8:	55 73 74 61 77 00                                   Ustaw.

000000ae <START2>:
      ae:	83 65 62 79 20 7a 61 63 7a 80 81 00                 .eby zacz...

000000ba <START1>:
      ba:	57 63 69 82 6e 69 6a 20 6f 6b 00 00                 Wci.nij ok..

000000c6 <__ctors_end>:
      c6:	11 24       	eor	r1, r1
      c8:	1f be       	out	0x3f, r1	; 63
      ca:	cf e5       	ldi	r28, 0x5F	; 95
      cc:	d8 e0       	ldi	r29, 0x08	; 8
      ce:	de bf       	out	0x3e, r29	; 62
      d0:	cd bf       	out	0x3d, r28	; 61

000000d2 <__do_copy_data>:
      d2:	12 e0       	ldi	r17, 0x02	; 2
      d4:	a0 e6       	ldi	r26, 0x60	; 96
      d6:	b0 e0       	ldi	r27, 0x00	; 0
      d8:	ea ec       	ldi	r30, 0xCA	; 202
      da:	ff e1       	ldi	r31, 0x1F	; 31
      dc:	02 c0       	rjmp	.+4      	; 0xe2 <__do_copy_data+0x10>
      de:	05 90       	lpm	r0, Z+
      e0:	0d 92       	st	X+, r0
      e2:	a4 30       	cpi	r26, 0x04	; 4
      e4:	b1 07       	cpc	r27, r17
      e6:	d9 f7       	brne	.-10     	; 0xde <__do_copy_data+0xc>

000000e8 <__do_clear_bss>:
      e8:	22 e0       	ldi	r18, 0x02	; 2
      ea:	a4 e0       	ldi	r26, 0x04	; 4
      ec:	b2 e0       	ldi	r27, 0x02	; 2
      ee:	01 c0       	rjmp	.+2      	; 0xf2 <.do_clear_bss_start>

000000f0 <.do_clear_bss_loop>:
      f0:	1d 92       	st	X+, r1

000000f2 <.do_clear_bss_start>:
      f2:	ab 3b       	cpi	r26, 0xBB	; 187
      f4:	b2 07       	cpc	r27, r18
      f6:	e1 f7       	brne	.-8      	; 0xf0 <.do_clear_bss_loop>
      f8:	0e 94 ef 0a 	call	0x15de	; 0x15de <main>
      fc:	0c 94 e3 0f 	jmp	0x1fc6	; 0x1fc6 <_exit>

00000100 <__bad_interrupt>:
     100:	0c 94 00 00 	jmp	0	; 0x0 <__vectors>

00000104 <save_date_time>:
     104:	80 91 05 02 	lds	r24, 0x0205
     108:	8f 77       	andi	r24, 0x7F	; 127
     10a:	0e 94 e0 08 	call	0x11c0	; 0x11c0 <dec2bcd>
     10e:	80 93 35 02 	sts	0x0235, r24
     112:	80 91 6a 00 	lds	r24, 0x006A
     116:	0e 94 e0 08 	call	0x11c0	; 0x11c0 <dec2bcd>
     11a:	80 93 36 02 	sts	0x0236, r24
     11e:	80 91 69 00 	lds	r24, 0x0069
     122:	0e 94 e0 08 	call	0x11c0	; 0x11c0 <dec2bcd>
     126:	80 93 37 02 	sts	0x0237, r24
     12a:	80 91 68 00 	lds	r24, 0x0068
     12e:	0e 94 e0 08 	call	0x11c0	; 0x11c0 <dec2bcd>
     132:	80 93 39 02 	sts	0x0239, r24
     136:	80 91 67 00 	lds	r24, 0x0067
     13a:	0e 94 e0 08 	call	0x11c0	; 0x11c0 <dec2bcd>
     13e:	80 93 3a 02 	sts	0x023A, r24
     142:	80 91 66 00 	lds	r24, 0x0066
     146:	0e 94 e0 08 	call	0x11c0	; 0x11c0 <dec2bcd>
     14a:	80 93 3b 02 	sts	0x023B, r24
     14e:	25 e3       	ldi	r18, 0x35	; 53
     150:	32 e0       	ldi	r19, 0x02	; 2
     152:	47 e0       	ldi	r20, 0x07	; 7
     154:	60 e0       	ldi	r22, 0x00	; 0
     156:	80 ed       	ldi	r24, 0xD0	; 208
     158:	0c 94 67 08 	jmp	0x10ce	; 0x10ce <I2C_WRITE_BUFFER>

0000015c <show_date_time>:
     15c:	25 e3       	ldi	r18, 0x35	; 53
     15e:	32 e0       	ldi	r19, 0x02	; 2
     160:	47 e0       	ldi	r20, 0x07	; 7
     162:	60 e0       	ldi	r22, 0x00	; 0
     164:	80 ed       	ldi	r24, 0xD0	; 208
     166:	0e 94 96 08 	call	0x112c	; 0x112c <I2C_READ_BUFFER>
     16a:	80 91 35 02 	lds	r24, 0x0235
     16e:	0e 94 ea 08 	call	0x11d4	; 0x11d4 <bcd2dec>
     172:	80 93 04 02 	sts	0x0204, r24
     176:	80 91 36 02 	lds	r24, 0x0236
     17a:	0e 94 ea 08 	call	0x11d4	; 0x11d4 <bcd2dec>
     17e:	80 93 40 02 	sts	0x0240, r24
     182:	80 91 37 02 	lds	r24, 0x0237
     186:	0e 94 ea 08 	call	0x11d4	; 0x11d4 <bcd2dec>
     18a:	80 93 10 02 	sts	0x0210, r24
     18e:	80 91 39 02 	lds	r24, 0x0239
     192:	0e 94 ea 08 	call	0x11d4	; 0x11d4 <bcd2dec>
     196:	80 93 3c 02 	sts	0x023C, r24
     19a:	80 91 3a 02 	lds	r24, 0x023A
     19e:	0e 94 ea 08 	call	0x11d4	; 0x11d4 <bcd2dec>
     1a2:	80 93 22 02 	sts	0x0222, r24
     1a6:	80 91 3b 02 	lds	r24, 0x023B
     1aa:	0e 94 ea 08 	call	0x11d4	; 0x11d4 <bcd2dec>
     1ae:	80 93 0f 02 	sts	0x020F, r24
     1b2:	0e 94 54 07 	call	0xea8	; 0xea8 <lcd_cls>
     1b6:	60 e0       	ldi	r22, 0x00	; 0
     1b8:	80 e0       	ldi	r24, 0x00	; 0
     1ba:	0e 94 4d 07 	call	0xe9a	; 0xe9a <lcd_locate>
     1be:	80 91 10 02 	lds	r24, 0x0210
     1c2:	8a 30       	cpi	r24, 0x0A	; 10
     1c4:	20 f4       	brcc	.+8      	; 0x1ce <show_date_time+0x72>
     1c6:	8f ea       	ldi	r24, 0xAF	; 175
     1c8:	90 e0       	ldi	r25, 0x00	; 0
     1ca:	0e 94 7f 06 	call	0xcfe	; 0xcfe <lcd_str>
     1ce:	80 91 10 02 	lds	r24, 0x0210
     1d2:	90 e0       	ldi	r25, 0x00	; 0
     1d4:	0e 94 ab 06 	call	0xd56	; 0xd56 <lcd_int>
     1d8:	8b ea       	ldi	r24, 0xAB	; 171
     1da:	90 e0       	ldi	r25, 0x00	; 0
     1dc:	0e 94 7f 06 	call	0xcfe	; 0xcfe <lcd_str>
     1e0:	80 91 40 02 	lds	r24, 0x0240
     1e4:	8a 30       	cpi	r24, 0x0A	; 10
     1e6:	20 f4       	brcc	.+8      	; 0x1f0 <show_date_time+0x94>
     1e8:	8f ea       	ldi	r24, 0xAF	; 175
     1ea:	90 e0       	ldi	r25, 0x00	; 0
     1ec:	0e 94 7f 06 	call	0xcfe	; 0xcfe <lcd_str>
     1f0:	80 91 40 02 	lds	r24, 0x0240
     1f4:	90 e0       	ldi	r25, 0x00	; 0
     1f6:	0e 94 ab 06 	call	0xd56	; 0xd56 <lcd_int>
     1fa:	8b ea       	ldi	r24, 0xAB	; 171
     1fc:	90 e0       	ldi	r25, 0x00	; 0
     1fe:	0e 94 7f 06 	call	0xcfe	; 0xcfe <lcd_str>
     202:	80 91 04 02 	lds	r24, 0x0204
     206:	8a 30       	cpi	r24, 0x0A	; 10
     208:	20 f4       	brcc	.+8      	; 0x212 <show_date_time+0xb6>
     20a:	8f ea       	ldi	r24, 0xAF	; 175
     20c:	90 e0       	ldi	r25, 0x00	; 0
     20e:	0e 94 7f 06 	call	0xcfe	; 0xcfe <lcd_str>
     212:	80 91 04 02 	lds	r24, 0x0204
     216:	90 e0       	ldi	r25, 0x00	; 0
     218:	0e 94 ab 06 	call	0xd56	; 0xd56 <lcd_int>
     21c:	80 91 3c 02 	lds	r24, 0x023C
     220:	60 e0       	ldi	r22, 0x00	; 0
     222:	8a 30       	cpi	r24, 0x0A	; 10
     224:	40 f4       	brcc	.+16     	; 0x236 <show_date_time+0xda>
     226:	81 e0       	ldi	r24, 0x01	; 1
     228:	0e 94 4d 07 	call	0xe9a	; 0xe9a <lcd_locate>
     22c:	80 e0       	ldi	r24, 0x00	; 0
     22e:	90 e0       	ldi	r25, 0x00	; 0
     230:	0e 94 ab 06 	call	0xd56	; 0xd56 <lcd_int>
     234:	61 e0       	ldi	r22, 0x01	; 1
     236:	81 e0       	ldi	r24, 0x01	; 1
     238:	0e 94 4d 07 	call	0xe9a	; 0xe9a <lcd_locate>
     23c:	80 91 3c 02 	lds	r24, 0x023C
     240:	90 e0       	ldi	r25, 0x00	; 0
     242:	0e 94 ab 06 	call	0xd56	; 0xd56 <lcd_int>
     246:	62 e0       	ldi	r22, 0x02	; 2
     248:	81 e0       	ldi	r24, 0x01	; 1
     24a:	0e 94 4d 07 	call	0xe9a	; 0xe9a <lcd_locate>
     24e:	8e e2       	ldi	r24, 0x2E	; 46
     250:	0e 94 78 06 	call	0xcf0	; 0xcf0 <lcd_char>
     254:	80 91 22 02 	lds	r24, 0x0222
     258:	63 e0       	ldi	r22, 0x03	; 3
     25a:	8a 30       	cpi	r24, 0x0A	; 10
     25c:	40 f4       	brcc	.+16     	; 0x26e <show_date_time+0x112>
     25e:	81 e0       	ldi	r24, 0x01	; 1
     260:	0e 94 4d 07 	call	0xe9a	; 0xe9a <lcd_locate>
     264:	80 e0       	ldi	r24, 0x00	; 0
     266:	90 e0       	ldi	r25, 0x00	; 0
     268:	0e 94 ab 06 	call	0xd56	; 0xd56 <lcd_int>
     26c:	64 e0       	ldi	r22, 0x04	; 4
     26e:	81 e0       	ldi	r24, 0x01	; 1
     270:	0e 94 4d 07 	call	0xe9a	; 0xe9a <lcd_locate>
     274:	80 91 22 02 	lds	r24, 0x0222
     278:	90 e0       	ldi	r25, 0x00	; 0
     27a:	0e 94 ab 06 	call	0xd56	; 0xd56 <lcd_int>
     27e:	80 91 0f 02 	lds	r24, 0x020F
     282:	65 e0       	ldi	r22, 0x05	; 5
     284:	8a 30       	cpi	r24, 0x0A	; 10
     286:	80 f4       	brcc	.+32     	; 0x2a8 <show_date_time+0x14c>
     288:	81 e0       	ldi	r24, 0x01	; 1
     28a:	0e 94 4d 07 	call	0xe9a	; 0xe9a <lcd_locate>
     28e:	8e e2       	ldi	r24, 0x2E	; 46
     290:	0e 94 78 06 	call	0xcf0	; 0xcf0 <lcd_char>
     294:	66 e0       	ldi	r22, 0x06	; 6
     296:	81 e0       	ldi	r24, 0x01	; 1
     298:	0e 94 4d 07 	call	0xe9a	; 0xe9a <lcd_locate>
     29c:	8d ea       	ldi	r24, 0xAD	; 173
     29e:	90 e0       	ldi	r25, 0x00	; 0
     2a0:	0e 94 7f 06 	call	0xcfe	; 0xcfe <lcd_str>
     2a4:	69 e0       	ldi	r22, 0x09	; 9
     2a6:	21 c0       	rjmp	.+66     	; 0x2ea <show_date_time+0x18e>
     2a8:	84 36       	cpi	r24, 0x64	; 100
     2aa:	80 f4       	brcc	.+32     	; 0x2cc <show_date_time+0x170>
     2ac:	81 e0       	ldi	r24, 0x01	; 1
     2ae:	0e 94 4d 07 	call	0xe9a	; 0xe9a <lcd_locate>
     2b2:	8e e2       	ldi	r24, 0x2E	; 46
     2b4:	0e 94 78 06 	call	0xcf0	; 0xcf0 <lcd_char>
     2b8:	66 e0       	ldi	r22, 0x06	; 6
     2ba:	81 e0       	ldi	r24, 0x01	; 1
     2bc:	0e 94 4d 07 	call	0xe9a	; 0xe9a <lcd_locate>
     2c0:	81 eb       	ldi	r24, 0xB1	; 177
     2c2:	90 e0       	ldi	r25, 0x00	; 0
     2c4:	0e 94 7f 06 	call	0xcfe	; 0xcfe <lcd_str>
     2c8:	68 e0       	ldi	r22, 0x08	; 8
     2ca:	0f c0       	rjmp	.+30     	; 0x2ea <show_date_time+0x18e>
     2cc:	81 e0       	ldi	r24, 0x01	; 1
     2ce:	0e 94 4d 07 	call	0xe9a	; 0xe9a <lcd_locate>
     2d2:	8e e2       	ldi	r24, 0x2E	; 46
     2d4:	0e 94 78 06 	call	0xcf0	; 0xcf0 <lcd_char>
     2d8:	66 e0       	ldi	r22, 0x06	; 6
     2da:	81 e0       	ldi	r24, 0x01	; 1
     2dc:	0e 94 4d 07 	call	0xe9a	; 0xe9a <lcd_locate>
     2e0:	84 eb       	ldi	r24, 0xB4	; 180
     2e2:	90 e0       	ldi	r25, 0x00	; 0
     2e4:	0e 94 7f 06 	call	0xcfe	; 0xcfe <lcd_str>
     2e8:	67 e0       	ldi	r22, 0x07	; 7
     2ea:	81 e0       	ldi	r24, 0x01	; 1
     2ec:	0e 94 4d 07 	call	0xe9a	; 0xe9a <lcd_locate>
     2f0:	80 91 0f 02 	lds	r24, 0x020F
     2f4:	90 e0       	ldi	r25, 0x00	; 0
     2f6:	0c 94 ab 06 	jmp	0xd56	; 0xd56 <lcd_int>

000002fa <change_menu>:
     2fa:	cf 93       	push	r28
     2fc:	80 91 08 02 	lds	r24, 0x0208
     300:	85 30       	cpi	r24, 0x05	; 5
     302:	08 f0       	brcs	.+2      	; 0x306 <change_menu+0xc>
     304:	65 c0       	rjmp	.+202    	; 0x3d0 <change_menu+0xd6>
     306:	e0 91 09 02 	lds	r30, 0x0209
     30a:	80 91 08 02 	lds	r24, 0x0208
     30e:	cb e0       	ldi	r28, 0x0B	; 11
     310:	ce 9f       	mul	r28, r30
     312:	f0 01       	movw	r30, r0
     314:	11 24       	eor	r1, r1
     316:	e8 0f       	add	r30, r24
     318:	f1 1d       	adc	r31, r1
     31a:	ec 5c       	subi	r30, 0xCC	; 204
     31c:	fe 4f       	sbci	r31, 0xFE	; 254
     31e:	80 81       	ld	r24, Z
     320:	80 93 09 02 	sts	0x0209, r24
     324:	0e 94 54 07 	call	0xea8	; 0xea8 <lcd_cls>
     328:	a0 91 09 02 	lds	r26, 0x0209
     32c:	ca 9f       	mul	r28, r26
     32e:	d0 01       	movw	r26, r0
     330:	11 24       	eor	r1, r1
     332:	ac 5c       	subi	r26, 0xCC	; 204
     334:	be 4f       	sbci	r27, 0xFE	; 254
     336:	17 96       	adiw	r26, 0x07	; 7
     338:	8d 91       	ld	r24, X+
     33a:	9c 91       	ld	r25, X
     33c:	18 97       	sbiw	r26, 0x08	; 8
     33e:	89 2b       	or	r24, r25
     340:	79 f0       	breq	.+30     	; 0x360 <change_menu+0x66>
     342:	60 e0       	ldi	r22, 0x00	; 0
     344:	80 e0       	ldi	r24, 0x00	; 0
     346:	0e 94 4d 07 	call	0xe9a	; 0xe9a <lcd_locate>
     34a:	e0 91 09 02 	lds	r30, 0x0209
     34e:	ce 9f       	mul	r28, r30
     350:	f0 01       	movw	r30, r0
     352:	11 24       	eor	r1, r1
     354:	ec 5c       	subi	r30, 0xCC	; 204
     356:	fe 4f       	sbci	r31, 0xFE	; 254
     358:	87 81       	ldd	r24, Z+7	; 0x07
     35a:	90 85       	ldd	r25, Z+8	; 0x08
     35c:	0e 94 8b 06 	call	0xd16	; 0xd16 <lcd_str_P>
     360:	a0 91 09 02 	lds	r26, 0x0209
     364:	cb e0       	ldi	r28, 0x0B	; 11
     366:	ca 9f       	mul	r28, r26
     368:	d0 01       	movw	r26, r0
     36a:	11 24       	eor	r1, r1
     36c:	ac 5c       	subi	r26, 0xCC	; 204
     36e:	be 4f       	sbci	r27, 0xFE	; 254
     370:	19 96       	adiw	r26, 0x09	; 9
     372:	8d 91       	ld	r24, X+
     374:	9c 91       	ld	r25, X
     376:	1a 97       	sbiw	r26, 0x0a	; 10
     378:	89 2b       	or	r24, r25
     37a:	79 f0       	breq	.+30     	; 0x39a <change_menu+0xa0>
     37c:	60 e0       	ldi	r22, 0x00	; 0
     37e:	81 e0       	ldi	r24, 0x01	; 1
     380:	0e 94 4d 07 	call	0xe9a	; 0xe9a <lcd_locate>
     384:	e0 91 09 02 	lds	r30, 0x0209
     388:	ce 9f       	mul	r28, r30
     38a:	f0 01       	movw	r30, r0
     38c:	11 24       	eor	r1, r1
     38e:	ec 5c       	subi	r30, 0xCC	; 204
     390:	fe 4f       	sbci	r31, 0xFE	; 254
     392:	81 85       	ldd	r24, Z+9	; 0x09
     394:	92 85       	ldd	r25, Z+10	; 0x0a
     396:	0e 94 8b 06 	call	0xd16	; 0xd16 <lcd_str_P>
     39a:	a0 91 09 02 	lds	r26, 0x0209
     39e:	2b e0       	ldi	r18, 0x0B	; 11
     3a0:	2a 9f       	mul	r18, r26
     3a2:	d0 01       	movw	r26, r0
     3a4:	11 24       	eor	r1, r1
     3a6:	ac 5c       	subi	r26, 0xCC	; 204
     3a8:	be 4f       	sbci	r27, 0xFE	; 254
     3aa:	15 96       	adiw	r26, 0x05	; 5
     3ac:	8d 91       	ld	r24, X+
     3ae:	9c 91       	ld	r25, X
     3b0:	16 97       	sbiw	r26, 0x06	; 6
     3b2:	89 2b       	or	r24, r25
     3b4:	59 f0       	breq	.+22     	; 0x3cc <change_menu+0xd2>
     3b6:	e0 91 09 02 	lds	r30, 0x0209
     3ba:	2e 9f       	mul	r18, r30
     3bc:	f0 01       	movw	r30, r0
     3be:	11 24       	eor	r1, r1
     3c0:	ec 5c       	subi	r30, 0xCC	; 204
     3c2:	fe 4f       	sbci	r31, 0xFE	; 254
     3c4:	05 80       	ldd	r0, Z+5	; 0x05
     3c6:	f6 81       	ldd	r31, Z+6	; 0x06
     3c8:	e0 2d       	mov	r30, r0
     3ca:	09 95       	icall
     3cc:	10 92 08 02 	sts	0x0208, r1
     3d0:	cf 91       	pop	r28
     3d2:	08 95       	ret

000003d4 <read_key>:
     3d4:	80 91 41 02 	lds	r24, 0x0241
     3d8:	90 91 42 02 	lds	r25, 0x0242
     3dc:	8d 3f       	cpi	r24, 0xFD	; 253
     3de:	93 40       	sbci	r25, 0x03	; 3
     3e0:	78 f0       	brcs	.+30     	; 0x400 <read_key+0x2c>
     3e2:	80 91 41 02 	lds	r24, 0x0241
     3e6:	90 91 42 02 	lds	r25, 0x0242
     3ea:	81 15       	cp	r24, r1
     3ec:	94 40       	sbci	r25, 0x04	; 4
     3ee:	40 f4       	brcc	.+16     	; 0x400 <read_key+0x2c>
     3f0:	80 91 ba 02 	lds	r24, 0x02BA
     3f4:	81 11       	cpse	r24, r1
     3f6:	04 c0       	rjmp	.+8      	; 0x400 <read_key+0x2c>
     3f8:	81 e0       	ldi	r24, 0x01	; 1
     3fa:	80 93 08 02 	sts	0x0208, r24
     3fe:	16 c0       	rjmp	.+44     	; 0x42c <read_key+0x58>
     400:	80 91 41 02 	lds	r24, 0x0241
     404:	90 91 42 02 	lds	r25, 0x0242
     408:	85 38       	cpi	r24, 0x85	; 133
     40a:	93 40       	sbci	r25, 0x03	; 3
     40c:	90 f0       	brcs	.+36     	; 0x432 <read_key+0x5e>
     40e:	80 91 41 02 	lds	r24, 0x0241
     412:	90 91 42 02 	lds	r25, 0x0242
     416:	8d 3f       	cpi	r24, 0xFD	; 253
     418:	93 40       	sbci	r25, 0x03	; 3
     41a:	58 f4       	brcc	.+22     	; 0x432 <read_key+0x5e>
     41c:	80 91 ba 02 	lds	r24, 0x02BA
     420:	81 11       	cpse	r24, r1
     422:	07 c0       	rjmp	.+14     	; 0x432 <read_key+0x5e>
     424:	82 e0       	ldi	r24, 0x02	; 2
     426:	80 93 08 02 	sts	0x0208, r24
     42a:	81 e0       	ldi	r24, 0x01	; 1
     42c:	80 93 ba 02 	sts	0x02BA, r24
     430:	08 95       	ret
     432:	80 91 41 02 	lds	r24, 0x0241
     436:	90 91 42 02 	lds	r25, 0x0242
     43a:	8f 34       	cpi	r24, 0x4F	; 79
     43c:	92 40       	sbci	r25, 0x02	; 2
     43e:	68 f0       	brcs	.+26     	; 0x45a <read_key+0x86>
     440:	80 91 41 02 	lds	r24, 0x0241
     444:	90 91 42 02 	lds	r25, 0x0242
     448:	83 3b       	cpi	r24, 0xB3	; 179
     44a:	92 40       	sbci	r25, 0x02	; 2
     44c:	30 f4       	brcc	.+12     	; 0x45a <read_key+0x86>
     44e:	80 91 ba 02 	lds	r24, 0x02BA
     452:	81 11       	cpse	r24, r1
     454:	02 c0       	rjmp	.+4      	; 0x45a <read_key+0x86>
     456:	83 e0       	ldi	r24, 0x03	; 3
     458:	e6 cf       	rjmp	.-52     	; 0x426 <read_key+0x52>
     45a:	80 91 41 02 	lds	r24, 0x0241
     45e:	90 91 42 02 	lds	r25, 0x0242
     462:	85 3a       	cpi	r24, 0xA5	; 165
     464:	91 40       	sbci	r25, 0x01	; 1
     466:	68 f0       	brcs	.+26     	; 0x482 <read_key+0xae>
     468:	80 91 41 02 	lds	r24, 0x0241
     46c:	90 91 42 02 	lds	r25, 0x0242
     470:	89 30       	cpi	r24, 0x09	; 9
     472:	92 40       	sbci	r25, 0x02	; 2
     474:	30 f4       	brcc	.+12     	; 0x482 <read_key+0xae>
     476:	80 91 ba 02 	lds	r24, 0x02BA
     47a:	81 11       	cpse	r24, r1
     47c:	02 c0       	rjmp	.+4      	; 0x482 <read_key+0xae>
     47e:	84 e0       	ldi	r24, 0x04	; 4
     480:	d2 cf       	rjmp	.-92     	; 0x426 <read_key+0x52>
     482:	80 91 41 02 	lds	r24, 0x0241
     486:	90 91 42 02 	lds	r25, 0x0242
     48a:	84 36       	cpi	r24, 0x64	; 100
     48c:	91 05       	cpc	r25, r1
     48e:	40 f4       	brcc	.+16     	; 0x4a0 <read_key+0xcc>
     490:	80 91 ba 02 	lds	r24, 0x02BA
     494:	88 23       	and	r24, r24
     496:	21 f0       	breq	.+8      	; 0x4a0 <read_key+0xcc>
     498:	10 92 ba 02 	sts	0x02BA, r1
     49c:	10 92 08 02 	sts	0x0208, r1
     4a0:	08 95       	ret

000004a2 <display_change_date>:
     4a2:	0e 94 54 07 	call	0xea8	; 0xea8 <lcd_cls>
     4a6:	60 e0       	ldi	r22, 0x00	; 0
     4a8:	80 e0       	ldi	r24, 0x00	; 0
     4aa:	0e 94 4d 07 	call	0xe9a	; 0xe9a <lcd_locate>
     4ae:	86 eb       	ldi	r24, 0xB6	; 182
     4b0:	90 e0       	ldi	r25, 0x00	; 0
     4b2:	0e 94 7f 06 	call	0xcfe	; 0xcfe <lcd_str>
     4b6:	80 91 68 00 	lds	r24, 0x0068
     4ba:	60 e0       	ldi	r22, 0x00	; 0
     4bc:	8a 30       	cpi	r24, 0x0A	; 10
     4be:	40 f4       	brcc	.+16     	; 0x4d0 <display_change_date+0x2e>
     4c0:	81 e0       	ldi	r24, 0x01	; 1
     4c2:	0e 94 4d 07 	call	0xe9a	; 0xe9a <lcd_locate>
     4c6:	80 e0       	ldi	r24, 0x00	; 0
     4c8:	90 e0       	ldi	r25, 0x00	; 0
     4ca:	0e 94 ab 06 	call	0xd56	; 0xd56 <lcd_int>
     4ce:	61 e0       	ldi	r22, 0x01	; 1
     4d0:	81 e0       	ldi	r24, 0x01	; 1
     4d2:	0e 94 4d 07 	call	0xe9a	; 0xe9a <lcd_locate>
     4d6:	80 91 68 00 	lds	r24, 0x0068
     4da:	90 e0       	ldi	r25, 0x00	; 0
     4dc:	0e 94 ab 06 	call	0xd56	; 0xd56 <lcd_int>
     4e0:	62 e0       	ldi	r22, 0x02	; 2
     4e2:	81 e0       	ldi	r24, 0x01	; 1
     4e4:	0e 94 4d 07 	call	0xe9a	; 0xe9a <lcd_locate>
     4e8:	8e e2       	ldi	r24, 0x2E	; 46
     4ea:	0e 94 78 06 	call	0xcf0	; 0xcf0 <lcd_char>
     4ee:	80 91 67 00 	lds	r24, 0x0067
     4f2:	63 e0       	ldi	r22, 0x03	; 3
     4f4:	8a 30       	cpi	r24, 0x0A	; 10
     4f6:	40 f4       	brcc	.+16     	; 0x508 <display_change_date+0x66>
     4f8:	81 e0       	ldi	r24, 0x01	; 1
     4fa:	0e 94 4d 07 	call	0xe9a	; 0xe9a <lcd_locate>
     4fe:	80 e0       	ldi	r24, 0x00	; 0
     500:	90 e0       	ldi	r25, 0x00	; 0
     502:	0e 94 ab 06 	call	0xd56	; 0xd56 <lcd_int>
     506:	64 e0       	ldi	r22, 0x04	; 4
     508:	81 e0       	ldi	r24, 0x01	; 1
     50a:	0e 94 4d 07 	call	0xe9a	; 0xe9a <lcd_locate>
     50e:	80 91 67 00 	lds	r24, 0x0067
     512:	90 e0       	ldi	r25, 0x00	; 0
     514:	0e 94 ab 06 	call	0xd56	; 0xd56 <lcd_int>
     518:	80 91 66 00 	lds	r24, 0x0066
     51c:	65 e0       	ldi	r22, 0x05	; 5
     51e:	8a 30       	cpi	r24, 0x0A	; 10
     520:	80 f4       	brcc	.+32     	; 0x542 <display_change_date+0xa0>
     522:	81 e0       	ldi	r24, 0x01	; 1
     524:	0e 94 4d 07 	call	0xe9a	; 0xe9a <lcd_locate>
     528:	8e e2       	ldi	r24, 0x2E	; 46
     52a:	0e 94 78 06 	call	0xcf0	; 0xcf0 <lcd_char>
     52e:	66 e0       	ldi	r22, 0x06	; 6
     530:	81 e0       	ldi	r24, 0x01	; 1
     532:	0e 94 4d 07 	call	0xe9a	; 0xe9a <lcd_locate>
     536:	8d ea       	ldi	r24, 0xAD	; 173
     538:	90 e0       	ldi	r25, 0x00	; 0
     53a:	0e 94 7f 06 	call	0xcfe	; 0xcfe <lcd_str>
     53e:	69 e0       	ldi	r22, 0x09	; 9
     540:	21 c0       	rjmp	.+66     	; 0x584 <display_change_date+0xe2>
     542:	84 36       	cpi	r24, 0x64	; 100
     544:	80 f4       	brcc	.+32     	; 0x566 <display_change_date+0xc4>
     546:	81 e0       	ldi	r24, 0x01	; 1
     548:	0e 94 4d 07 	call	0xe9a	; 0xe9a <lcd_locate>
     54c:	8e e2       	ldi	r24, 0x2E	; 46
     54e:	0e 94 78 06 	call	0xcf0	; 0xcf0 <lcd_char>
     552:	66 e0       	ldi	r22, 0x06	; 6
     554:	81 e0       	ldi	r24, 0x01	; 1
     556:	0e 94 4d 07 	call	0xe9a	; 0xe9a <lcd_locate>
     55a:	81 eb       	ldi	r24, 0xB1	; 177
     55c:	90 e0       	ldi	r25, 0x00	; 0
     55e:	0e 94 7f 06 	call	0xcfe	; 0xcfe <lcd_str>
     562:	68 e0       	ldi	r22, 0x08	; 8
     564:	0f c0       	rjmp	.+30     	; 0x584 <display_change_date+0xe2>
     566:	81 e0       	ldi	r24, 0x01	; 1
     568:	0e 94 4d 07 	call	0xe9a	; 0xe9a <lcd_locate>
     56c:	8e e2       	ldi	r24, 0x2E	; 46
     56e:	0e 94 78 06 	call	0xcf0	; 0xcf0 <lcd_char>
     572:	66 e0       	ldi	r22, 0x06	; 6
     574:	81 e0       	ldi	r24, 0x01	; 1
     576:	0e 94 4d 07 	call	0xe9a	; 0xe9a <lcd_locate>
     57a:	84 eb       	ldi	r24, 0xB4	; 180
     57c:	90 e0       	ldi	r25, 0x00	; 0
     57e:	0e 94 7f 06 	call	0xcfe	; 0xcfe <lcd_str>
     582:	67 e0       	ldi	r22, 0x07	; 7
     584:	81 e0       	ldi	r24, 0x01	; 1
     586:	0e 94 4d 07 	call	0xe9a	; 0xe9a <lcd_locate>
     58a:	80 91 66 00 	lds	r24, 0x0066
     58e:	90 e0       	ldi	r25, 0x00	; 0
     590:	0c 94 ab 06 	jmp	0xd56	; 0xd56 <lcd_int>

00000594 <change_year>:
     594:	0e 94 51 02 	call	0x4a2	; 0x4a2 <display_change_date>
     598:	0e 94 68 07 	call	0xed0	; 0xed0 <lcd_cursor_on>
     59c:	69 e0       	ldi	r22, 0x09	; 9
     59e:	81 e0       	ldi	r24, 0x01	; 1
     5a0:	0e 94 4d 07 	call	0xe9a	; 0xe9a <lcd_locate>
     5a4:	0e 94 ea 01 	call	0x3d4	; 0x3d4 <read_key>
     5a8:	80 91 08 02 	lds	r24, 0x0208
     5ac:	81 30       	cpi	r24, 0x01	; 1
     5ae:	19 f0       	breq	.+6      	; 0x5b6 <change_year+0x22>
     5b0:	82 30       	cpi	r24, 0x02	; 2
     5b2:	61 f0       	breq	.+24     	; 0x5cc <change_year+0x38>
     5b4:	08 95       	ret
     5b6:	80 91 66 00 	lds	r24, 0x0066
     5ba:	84 36       	cpi	r24, 0x64	; 100
     5bc:	18 f4       	brcc	.+6      	; 0x5c4 <change_year+0x30>
     5be:	8f 5f       	subi	r24, 0xFF	; 255
     5c0:	80 93 66 00 	sts	0x0066, r24
     5c4:	0e 94 6b 07 	call	0xed6	; 0xed6 <lcd_cursor_off>
     5c8:	0c 94 51 02 	jmp	0x4a2	; 0x4a2 <display_change_date>
     5cc:	80 91 66 00 	lds	r24, 0x0066
     5d0:	88 23       	and	r24, r24
     5d2:	c1 f3       	breq	.-16     	; 0x5c4 <change_year+0x30>
     5d4:	81 50       	subi	r24, 0x01	; 1
     5d6:	f4 cf       	rjmp	.-24     	; 0x5c0 <change_year+0x2c>

000005d8 <change_month>:
     5d8:	0e 94 51 02 	call	0x4a2	; 0x4a2 <display_change_date>
     5dc:	64 e0       	ldi	r22, 0x04	; 4
     5de:	81 e0       	ldi	r24, 0x01	; 1
     5e0:	0e 94 4d 07 	call	0xe9a	; 0xe9a <lcd_locate>
     5e4:	0e 94 68 07 	call	0xed0	; 0xed0 <lcd_cursor_on>
     5e8:	0e 94 ea 01 	call	0x3d4	; 0x3d4 <read_key>
     5ec:	80 91 08 02 	lds	r24, 0x0208
     5f0:	81 30       	cpi	r24, 0x01	; 1
     5f2:	19 f0       	breq	.+6      	; 0x5fa <change_month+0x22>
     5f4:	82 30       	cpi	r24, 0x02	; 2
     5f6:	61 f0       	breq	.+24     	; 0x610 <change_month+0x38>
     5f8:	08 95       	ret
     5fa:	80 91 67 00 	lds	r24, 0x0067
     5fe:	8c 30       	cpi	r24, 0x0C	; 12
     600:	18 f4       	brcc	.+6      	; 0x608 <change_month+0x30>
     602:	8f 5f       	subi	r24, 0xFF	; 255
     604:	80 93 67 00 	sts	0x0067, r24
     608:	0e 94 51 02 	call	0x4a2	; 0x4a2 <display_change_date>
     60c:	0c 94 6b 07 	jmp	0xed6	; 0xed6 <lcd_cursor_off>
     610:	80 91 67 00 	lds	r24, 0x0067
     614:	82 30       	cpi	r24, 0x02	; 2
     616:	c0 f3       	brcs	.-16     	; 0x608 <change_month+0x30>
     618:	81 50       	subi	r24, 0x01	; 1
     61a:	f4 cf       	rjmp	.-24     	; 0x604 <change_month+0x2c>

0000061c <display_temperature>:
     61c:	0e 94 54 07 	call	0xea8	; 0xea8 <lcd_cls>
     620:	60 e0       	ldi	r22, 0x00	; 0
     622:	80 e0       	ldi	r24, 0x00	; 0
     624:	0e 94 4d 07 	call	0xe9a	; 0xe9a <lcd_locate>
     628:	8b eb       	ldi	r24, 0xBB	; 187
     62a:	90 e0       	ldi	r25, 0x00	; 0
     62c:	0e 94 7f 06 	call	0xcfe	; 0xcfe <lcd_str>
     630:	62 e0       	ldi	r22, 0x02	; 2
     632:	81 e0       	ldi	r24, 0x01	; 1
     634:	0e 94 4d 07 	call	0xe9a	; 0xe9a <lcd_locate>
     638:	80 91 64 00 	lds	r24, 0x0064
     63c:	90 e0       	ldi	r25, 0x00	; 0
     63e:	0e 94 ab 06 	call	0xd56	; 0xd56 <lcd_int>
     642:	64 e0       	ldi	r22, 0x04	; 4
     644:	81 e0       	ldi	r24, 0x01	; 1
     646:	0e 94 4d 07 	call	0xe9a	; 0xe9a <lcd_locate>
     64a:	87 ec       	ldi	r24, 0xC7	; 199
     64c:	90 e0       	ldi	r25, 0x00	; 0
     64e:	0c 94 7f 06 	jmp	0xcfe	; 0xcfe <lcd_str>

00000652 <change_temperature>:
     652:	0e 94 0e 03 	call	0x61c	; 0x61c <display_temperature>
     656:	64 e0       	ldi	r22, 0x04	; 4
     658:	81 e0       	ldi	r24, 0x01	; 1
     65a:	0e 94 4d 07 	call	0xe9a	; 0xe9a <lcd_locate>
     65e:	0e 94 68 07 	call	0xed0	; 0xed0 <lcd_cursor_on>
     662:	0e 94 ea 01 	call	0x3d4	; 0x3d4 <read_key>
     666:	80 91 08 02 	lds	r24, 0x0208
     66a:	81 30       	cpi	r24, 0x01	; 1
     66c:	19 f0       	breq	.+6      	; 0x674 <change_temperature+0x22>
     66e:	82 30       	cpi	r24, 0x02	; 2
     670:	51 f0       	breq	.+20     	; 0x686 <change_temperature+0x34>
     672:	08 95       	ret
     674:	80 91 64 00 	lds	r24, 0x0064
     678:	88 32       	cpi	r24, 0x28	; 40
     67a:	18 f4       	brcc	.+6      	; 0x682 <change_temperature+0x30>
     67c:	8f 5f       	subi	r24, 0xFF	; 255
     67e:	80 93 64 00 	sts	0x0064, r24
     682:	0c 94 0e 03 	jmp	0x61c	; 0x61c <display_temperature>
     686:	80 91 64 00 	lds	r24, 0x0064
     68a:	85 31       	cpi	r24, 0x15	; 21
     68c:	d0 f3       	brcs	.-12     	; 0x682 <change_temperature+0x30>
     68e:	81 50       	subi	r24, 0x01	; 1
     690:	f6 cf       	rjmp	.-20     	; 0x67e <change_temperature+0x2c>

00000692 <display_change_humidity>:
     692:	0e 94 54 07 	call	0xea8	; 0xea8 <lcd_cls>
     696:	60 e0       	ldi	r22, 0x00	; 0
     698:	80 e0       	ldi	r24, 0x00	; 0
     69a:	0e 94 4d 07 	call	0xe9a	; 0xe9a <lcd_locate>
     69e:	8a ec       	ldi	r24, 0xCA	; 202
     6a0:	90 e0       	ldi	r25, 0x00	; 0
     6a2:	0e 94 7f 06 	call	0xcfe	; 0xcfe <lcd_str>
     6a6:	60 e0       	ldi	r22, 0x00	; 0
     6a8:	81 e0       	ldi	r24, 0x01	; 1
     6aa:	0e 94 4d 07 	call	0xe9a	; 0xe9a <lcd_locate>
     6ae:	80 91 65 00 	lds	r24, 0x0065
     6b2:	90 e0       	ldi	r25, 0x00	; 0
     6b4:	0e 94 ab 06 	call	0xd56	; 0xd56 <lcd_int>
     6b8:	62 e0       	ldi	r22, 0x02	; 2
     6ba:	81 e0       	ldi	r24, 0x01	; 1
     6bc:	0e 94 4d 07 	call	0xe9a	; 0xe9a <lcd_locate>
     6c0:	85 ed       	ldi	r24, 0xD5	; 213
     6c2:	90 e0       	ldi	r25, 0x00	; 0
     6c4:	0c 94 7f 06 	jmp	0xcfe	; 0xcfe <lcd_str>

000006c8 <change_humidity>:
     6c8:	0e 94 49 03 	call	0x692	; 0x692 <display_change_humidity>
     6cc:	63 e0       	ldi	r22, 0x03	; 3
     6ce:	81 e0       	ldi	r24, 0x01	; 1
     6d0:	0e 94 4d 07 	call	0xe9a	; 0xe9a <lcd_locate>
     6d4:	0e 94 68 07 	call	0xed0	; 0xed0 <lcd_cursor_on>
     6d8:	0e 94 ea 01 	call	0x3d4	; 0x3d4 <read_key>
     6dc:	80 91 08 02 	lds	r24, 0x0208
     6e0:	81 30       	cpi	r24, 0x01	; 1
     6e2:	19 f0       	breq	.+6      	; 0x6ea <change_humidity+0x22>
     6e4:	82 30       	cpi	r24, 0x02	; 2
     6e6:	61 f0       	breq	.+24     	; 0x700 <change_humidity+0x38>
     6e8:	08 95       	ret
     6ea:	80 91 65 00 	lds	r24, 0x0065
     6ee:	84 36       	cpi	r24, 0x64	; 100
     6f0:	18 f4       	brcc	.+6      	; 0x6f8 <change_humidity+0x30>
     6f2:	8f 5f       	subi	r24, 0xFF	; 255
     6f4:	80 93 65 00 	sts	0x0065, r24
     6f8:	0e 94 6b 07 	call	0xed6	; 0xed6 <lcd_cursor_off>
     6fc:	0c 94 49 03 	jmp	0x692	; 0x692 <display_change_humidity>
     700:	80 91 65 00 	lds	r24, 0x0065
     704:	8f 31       	cpi	r24, 0x1F	; 31
     706:	c0 f3       	brcs	.-16     	; 0x6f8 <change_humidity+0x30>
     708:	81 50       	subi	r24, 0x01	; 1
     70a:	f4 cf       	rjmp	.-24     	; 0x6f4 <change_humidity+0x2c>

0000070c <display_change_lighting>:
     70c:	0e 94 54 07 	call	0xea8	; 0xea8 <lcd_cls>
     710:	60 e0       	ldi	r22, 0x00	; 0
     712:	80 e0       	ldi	r24, 0x00	; 0
     714:	0e 94 4d 07 	call	0xe9a	; 0xe9a <lcd_locate>
     718:	89 ed       	ldi	r24, 0xD9	; 217
     71a:	90 e0       	ldi	r25, 0x00	; 0
     71c:	0e 94 7f 06 	call	0xcfe	; 0xcfe <lcd_str>
     720:	80 91 63 00 	lds	r24, 0x0063
     724:	8a 30       	cpi	r24, 0x0A	; 10
     726:	10 f4       	brcc	.+4      	; 0x72c <display_change_lighting+0x20>
     728:	69 e0       	ldi	r22, 0x09	; 9
     72a:	01 c0       	rjmp	.+2      	; 0x72e <display_change_lighting+0x22>
     72c:	68 e0       	ldi	r22, 0x08	; 8
     72e:	81 e0       	ldi	r24, 0x01	; 1
     730:	0e 94 4d 07 	call	0xe9a	; 0xe9a <lcd_locate>
     734:	80 91 63 00 	lds	r24, 0x0063
     738:	90 e0       	ldi	r25, 0x00	; 0
     73a:	0e 94 ab 06 	call	0xd56	; 0xd56 <lcd_int>
     73e:	6a e0       	ldi	r22, 0x0A	; 10
     740:	81 e0       	ldi	r24, 0x01	; 1
     742:	0e 94 4d 07 	call	0xe9a	; 0xe9a <lcd_locate>
     746:	8a e3       	ldi	r24, 0x3A	; 58
     748:	0e 94 78 06 	call	0xcf0	; 0xcf0 <lcd_char>
     74c:	6b e0       	ldi	r22, 0x0B	; 11
     74e:	81 e0       	ldi	r24, 0x01	; 1
     750:	0e 94 4d 07 	call	0xe9a	; 0xe9a <lcd_locate>
     754:	80 91 62 00 	lds	r24, 0x0062
     758:	90 e0       	ldi	r25, 0x00	; 0
     75a:	0c 94 ab 06 	jmp	0xd56	; 0xd56 <lcd_int>

0000075e <change_lighting>:
     75e:	0e 94 86 03 	call	0x70c	; 0x70c <display_change_lighting>
     762:	69 e0       	ldi	r22, 0x09	; 9
     764:	81 e0       	ldi	r24, 0x01	; 1
     766:	0e 94 4d 07 	call	0xe9a	; 0xe9a <lcd_locate>
     76a:	0e 94 68 07 	call	0xed0	; 0xed0 <lcd_cursor_on>
     76e:	80 91 08 02 	lds	r24, 0x0208
     772:	81 30       	cpi	r24, 0x01	; 1
     774:	19 f0       	breq	.+6      	; 0x77c <change_lighting+0x1e>
     776:	82 30       	cpi	r24, 0x02	; 2
     778:	89 f0       	breq	.+34     	; 0x79c <change_lighting+0x3e>
     77a:	08 95       	ret
     77c:	80 91 63 00 	lds	r24, 0x0063
     780:	88 31       	cpi	r24, 0x18	; 24
     782:	40 f4       	brcc	.+16     	; 0x794 <change_lighting+0x36>
     784:	8f 5f       	subi	r24, 0xFF	; 255
     786:	80 93 63 00 	sts	0x0063, r24
     78a:	80 91 62 00 	lds	r24, 0x0062
     78e:	81 50       	subi	r24, 0x01	; 1
     790:	80 93 62 00 	sts	0x0062, r24
     794:	0e 94 6b 07 	call	0xed6	; 0xed6 <lcd_cursor_off>
     798:	0c 94 86 03 	jmp	0x70c	; 0x70c <display_change_lighting>
     79c:	80 91 63 00 	lds	r24, 0x0063
     7a0:	88 23       	and	r24, r24
     7a2:	c1 f3       	breq	.-16     	; 0x794 <change_lighting+0x36>
     7a4:	81 50       	subi	r24, 0x01	; 1
     7a6:	80 93 63 00 	sts	0x0063, r24
     7aa:	80 91 62 00 	lds	r24, 0x0062
     7ae:	8f 5f       	subi	r24, 0xFF	; 255
     7b0:	ef cf       	rjmp	.-34     	; 0x790 <change_lighting+0x32>

000007b2 <display_watering_amount>:
     7b2:	0e 94 54 07 	call	0xea8	; 0xea8 <lcd_cls>
     7b6:	60 e0       	ldi	r22, 0x00	; 0
     7b8:	80 e0       	ldi	r24, 0x00	; 0
     7ba:	0e 94 4d 07 	call	0xe9a	; 0xe9a <lcd_locate>
     7be:	88 ee       	ldi	r24, 0xE8	; 232
     7c0:	90 e0       	ldi	r25, 0x00	; 0
     7c2:	0e 94 7f 06 	call	0xcfe	; 0xcfe <lcd_str>
     7c6:	62 e0       	ldi	r22, 0x02	; 2
     7c8:	81 e0       	ldi	r24, 0x01	; 1
     7ca:	0e 94 4d 07 	call	0xe9a	; 0xe9a <lcd_locate>
     7ce:	80 91 61 00 	lds	r24, 0x0061
     7d2:	90 e0       	ldi	r25, 0x00	; 0
     7d4:	0e 94 ab 06 	call	0xd56	; 0xd56 <lcd_int>
     7d8:	66 e0       	ldi	r22, 0x06	; 6
     7da:	81 e0       	ldi	r24, 0x01	; 1
     7dc:	0e 94 4d 07 	call	0xe9a	; 0xe9a <lcd_locate>
     7e0:	83 ef       	ldi	r24, 0xF3	; 243
     7e2:	90 e0       	ldi	r25, 0x00	; 0
     7e4:	0c 94 7f 06 	jmp	0xcfe	; 0xcfe <lcd_str>

000007e8 <change_watering_amount>:
     7e8:	0e 94 d9 03 	call	0x7b2	; 0x7b2 <display_watering_amount>
     7ec:	63 e0       	ldi	r22, 0x03	; 3
     7ee:	81 e0       	ldi	r24, 0x01	; 1
     7f0:	0e 94 4d 07 	call	0xe9a	; 0xe9a <lcd_locate>
     7f4:	0e 94 68 07 	call	0xed0	; 0xed0 <lcd_cursor_on>
     7f8:	0e 94 ea 01 	call	0x3d4	; 0x3d4 <read_key>
     7fc:	80 91 08 02 	lds	r24, 0x0208
     800:	81 30       	cpi	r24, 0x01	; 1
     802:	19 f0       	breq	.+6      	; 0x80a <change_watering_amount+0x22>
     804:	82 30       	cpi	r24, 0x02	; 2
     806:	61 f0       	breq	.+24     	; 0x820 <change_watering_amount+0x38>
     808:	08 95       	ret
     80a:	80 91 61 00 	lds	r24, 0x0061
     80e:	85 36       	cpi	r24, 0x65	; 101
     810:	18 f4       	brcc	.+6      	; 0x818 <change_watering_amount+0x30>
     812:	8c 59       	subi	r24, 0x9C	; 156
     814:	80 93 61 00 	sts	0x0061, r24
     818:	0e 94 6b 07 	call	0xed6	; 0xed6 <lcd_cursor_off>
     81c:	0c 94 d9 03 	jmp	0x7b2	; 0x7b2 <display_watering_amount>
     820:	80 91 61 00 	lds	r24, 0x0061
     824:	88 3c       	cpi	r24, 0xC8	; 200
     826:	c0 f3       	brcs	.-16     	; 0x818 <change_watering_amount+0x30>
     828:	84 56       	subi	r24, 0x64	; 100
     82a:	f4 cf       	rjmp	.-24     	; 0x814 <change_watering_amount+0x2c>

0000082c <display_watering_freq>:
     82c:	0e 94 54 07 	call	0xea8	; 0xea8 <lcd_cls>
     830:	60 e0       	ldi	r22, 0x00	; 0
     832:	80 e0       	ldi	r24, 0x00	; 0
     834:	0e 94 4d 07 	call	0xe9a	; 0xe9a <lcd_locate>
     838:	86 ef       	ldi	r24, 0xF6	; 246
     83a:	90 e0       	ldi	r25, 0x00	; 0
     83c:	0e 94 7f 06 	call	0xcfe	; 0xcfe <lcd_str>
     840:	80 91 60 00 	lds	r24, 0x0060
     844:	61 e0       	ldi	r22, 0x01	; 1
     846:	82 30       	cpi	r24, 0x02	; 2
     848:	78 f4       	brcc	.+30     	; 0x868 <__stack+0x9>
     84a:	81 e0       	ldi	r24, 0x01	; 1
     84c:	0e 94 4d 07 	call	0xe9a	; 0xe9a <lcd_locate>
     850:	80 91 60 00 	lds	r24, 0x0060
     854:	90 e0       	ldi	r25, 0x00	; 0
     856:	0e 94 ab 06 	call	0xd56	; 0xd56 <lcd_int>
     85a:	64 e0       	ldi	r22, 0x04	; 4
     85c:	81 e0       	ldi	r24, 0x01	; 1
     85e:	0e 94 4d 07 	call	0xe9a	; 0xe9a <lcd_locate>
     862:	84 e0       	ldi	r24, 0x04	; 4
     864:	91 e0       	ldi	r25, 0x01	; 1
     866:	0e c0       	rjmp	.+28     	; 0x884 <__stack+0x25>
     868:	81 e0       	ldi	r24, 0x01	; 1
     86a:	0e 94 4d 07 	call	0xe9a	; 0xe9a <lcd_locate>
     86e:	80 91 60 00 	lds	r24, 0x0060
     872:	90 e0       	ldi	r25, 0x00	; 0
     874:	0e 94 ab 06 	call	0xd56	; 0xd56 <lcd_int>
     878:	64 e0       	ldi	r22, 0x04	; 4
     87a:	81 e0       	ldi	r24, 0x01	; 1
     87c:	0e 94 4d 07 	call	0xe9a	; 0xe9a <lcd_locate>
     880:	8a e0       	ldi	r24, 0x0A	; 10
     882:	91 e0       	ldi	r25, 0x01	; 1
     884:	0c 94 7f 06 	jmp	0xcfe	; 0xcfe <lcd_str>

00000888 <change_watering_freq>:
     888:	63 e0       	ldi	r22, 0x03	; 3
     88a:	81 e0       	ldi	r24, 0x01	; 1
     88c:	0e 94 4d 07 	call	0xe9a	; 0xe9a <lcd_locate>
     890:	0e 94 68 07 	call	0xed0	; 0xed0 <lcd_cursor_on>
     894:	0e 94 ea 01 	call	0x3d4	; 0x3d4 <read_key>
     898:	80 91 08 02 	lds	r24, 0x0208
     89c:	81 30       	cpi	r24, 0x01	; 1
     89e:	19 f0       	breq	.+6      	; 0x8a6 <change_watering_freq+0x1e>
     8a0:	82 30       	cpi	r24, 0x02	; 2
     8a2:	61 f0       	breq	.+24     	; 0x8bc <change_watering_freq+0x34>
     8a4:	08 95       	ret
     8a6:	80 91 60 00 	lds	r24, 0x0060
     8aa:	87 30       	cpi	r24, 0x07	; 7
     8ac:	28 f4       	brcc	.+10     	; 0x8b8 <change_watering_freq+0x30>
     8ae:	8f 5f       	subi	r24, 0xFF	; 255
     8b0:	80 93 60 00 	sts	0x0060, r24
     8b4:	80 93 3d 02 	sts	0x023D, r24
     8b8:	0c 94 16 04 	jmp	0x82c	; 0x82c <display_watering_freq>
     8bc:	80 91 60 00 	lds	r24, 0x0060
     8c0:	83 30       	cpi	r24, 0x03	; 3
     8c2:	d0 f3       	brcs	.-12     	; 0x8b8 <change_watering_freq+0x30>
     8c4:	81 50       	subi	r24, 0x01	; 1
     8c6:	f4 cf       	rjmp	.-24     	; 0x8b0 <change_watering_freq+0x28>

000008c8 <if_bissextile>:
     8c8:	20 91 66 00 	lds	r18, 0x0066
     8cc:	82 2f       	mov	r24, r18
     8ce:	83 70       	andi	r24, 0x03	; 3
     8d0:	31 f4       	brne	.+12     	; 0x8de <if_bissextile+0x16>
     8d2:	82 2f       	mov	r24, r18
     8d4:	64 e6       	ldi	r22, 0x64	; 100
     8d6:	0e 94 18 0b 	call	0x1630	; 0x1630 <__udivmodqi4>
     8da:	91 11       	cpse	r25, r1
     8dc:	08 c0       	rjmp	.+16     	; 0x8ee <if_bissextile+0x26>
     8de:	82 2f       	mov	r24, r18
     8e0:	90 e0       	ldi	r25, 0x00	; 0
     8e2:	60 e9       	ldi	r22, 0x90	; 144
     8e4:	71 e0       	ldi	r23, 0x01	; 1
     8e6:	0e 94 38 0b 	call	0x1670	; 0x1670 <__divmodhi4>
     8ea:	89 2b       	or	r24, r25
     8ec:	21 f4       	brne	.+8      	; 0x8f6 <if_bissextile+0x2e>
     8ee:	81 e0       	ldi	r24, 0x01	; 1
     8f0:	80 93 0e 02 	sts	0x020E, r24
     8f4:	08 95       	ret
     8f6:	10 92 0e 02 	sts	0x020E, r1
     8fa:	08 95       	ret

000008fc <change_day>:
     8fc:	0e 94 51 02 	call	0x4a2	; 0x4a2 <display_change_date>
     900:	61 e0       	ldi	r22, 0x01	; 1
     902:	81 e0       	ldi	r24, 0x01	; 1
     904:	0e 94 4d 07 	call	0xe9a	; 0xe9a <lcd_locate>
     908:	0e 94 68 07 	call	0xed0	; 0xed0 <lcd_cursor_on>
     90c:	0e 94 64 04 	call	0x8c8	; 0x8c8 <if_bissextile>
     910:	0e 94 ea 01 	call	0x3d4	; 0x3d4 <read_key>
     914:	80 91 08 02 	lds	r24, 0x0208
     918:	81 30       	cpi	r24, 0x01	; 1
     91a:	19 f0       	breq	.+6      	; 0x922 <change_day+0x26>
     91c:	82 30       	cpi	r24, 0x02	; 2
     91e:	c9 f1       	breq	.+114    	; 0x992 <change_day+0x96>
     920:	08 95       	ret
     922:	90 91 0e 02 	lds	r25, 0x020E
     926:	80 91 67 00 	lds	r24, 0x0067
     92a:	91 30       	cpi	r25, 0x01	; 1
     92c:	39 f4       	brne	.+14     	; 0x93c <change_day+0x40>
     92e:	82 30       	cpi	r24, 0x02	; 2
     930:	71 f4       	brne	.+28     	; 0x94e <change_day+0x52>
     932:	80 91 68 00 	lds	r24, 0x0068
     936:	8d 31       	cpi	r24, 0x1D	; 29
     938:	28 f1       	brcs	.+74     	; 0x984 <change_day+0x88>
     93a:	27 c0       	rjmp	.+78     	; 0x98a <change_day+0x8e>
     93c:	91 11       	cpse	r25, r1
     93e:	07 c0       	rjmp	.+14     	; 0x94e <change_day+0x52>
     940:	82 30       	cpi	r24, 0x02	; 2
     942:	29 f4       	brne	.+10     	; 0x94e <change_day+0x52>
     944:	80 91 68 00 	lds	r24, 0x0068
     948:	8c 31       	cpi	r24, 0x1C	; 28
     94a:	e0 f0       	brcs	.+56     	; 0x984 <change_day+0x88>
     94c:	1e c0       	rjmp	.+60     	; 0x98a <change_day+0x8e>
     94e:	98 2f       	mov	r25, r24
     950:	9d 7f       	andi	r25, 0xFD	; 253
     952:	94 30       	cpi	r25, 0x04	; 4
     954:	11 f0       	breq	.+4      	; 0x95a <change_day+0x5e>
     956:	99 30       	cpi	r25, 0x09	; 9
     958:	29 f4       	brne	.+10     	; 0x964 <change_day+0x68>
     95a:	80 91 68 00 	lds	r24, 0x0068
     95e:	8e 31       	cpi	r24, 0x1E	; 30
     960:	88 f0       	brcs	.+34     	; 0x984 <change_day+0x88>
     962:	13 c0       	rjmp	.+38     	; 0x98a <change_day+0x8e>
     964:	91 30       	cpi	r25, 0x01	; 1
     966:	51 f0       	breq	.+20     	; 0x97c <change_day+0x80>
     968:	85 30       	cpi	r24, 0x05	; 5
     96a:	41 f0       	breq	.+16     	; 0x97c <change_day+0x80>
     96c:	99 ef       	ldi	r25, 0xF9	; 249
     96e:	98 0f       	add	r25, r24
     970:	92 30       	cpi	r25, 0x02	; 2
     972:	20 f0       	brcs	.+8      	; 0x97c <change_day+0x80>
     974:	8a 30       	cpi	r24, 0x0A	; 10
     976:	11 f0       	breq	.+4      	; 0x97c <change_day+0x80>
     978:	8c 30       	cpi	r24, 0x0C	; 12
     97a:	39 f4       	brne	.+14     	; 0x98a <change_day+0x8e>
     97c:	80 91 68 00 	lds	r24, 0x0068
     980:	8f 31       	cpi	r24, 0x1F	; 31
     982:	18 f4       	brcc	.+6      	; 0x98a <change_day+0x8e>
     984:	8f 5f       	subi	r24, 0xFF	; 255
     986:	80 93 68 00 	sts	0x0068, r24
     98a:	0e 94 51 02 	call	0x4a2	; 0x4a2 <display_change_date>
     98e:	0c 94 6b 07 	jmp	0xed6	; 0xed6 <lcd_cursor_off>
     992:	80 91 68 00 	lds	r24, 0x0068
     996:	82 30       	cpi	r24, 0x02	; 2
     998:	c0 f3       	brcs	.-16     	; 0x98a <change_day+0x8e>
     99a:	81 50       	subi	r24, 0x01	; 1
     99c:	f4 cf       	rjmp	.-24     	; 0x986 <change_day+0x8a>

0000099e <setSaved>:
     99e:	90 e0       	ldi	r25, 0x00	; 0
     9a0:	90 93 ae 02 	sts	0x02AE, r25
     9a4:	80 93 ad 02 	sts	0x02AD, r24
     9a8:	08 95       	ret

000009aa <setTemperature>:
     9aa:	90 e0       	ldi	r25, 0x00	; 0
     9ac:	90 93 b0 02 	sts	0x02B0, r25
     9b0:	80 93 af 02 	sts	0x02AF, r24
     9b4:	08 95       	ret

000009b6 <setHumidity>:
     9b6:	90 e0       	ldi	r25, 0x00	; 0
     9b8:	90 93 b2 02 	sts	0x02B2, r25
     9bc:	80 93 b1 02 	sts	0x02B1, r24
     9c0:	08 95       	ret

000009c2 <setLighting>:
     9c2:	90 e0       	ldi	r25, 0x00	; 0
     9c4:	90 93 b4 02 	sts	0x02B4, r25
     9c8:	80 93 b3 02 	sts	0x02B3, r24
     9cc:	08 95       	ret

000009ce <setWateringAmount>:
     9ce:	90 e0       	ldi	r25, 0x00	; 0
     9d0:	90 93 b6 02 	sts	0x02B6, r25
     9d4:	80 93 b5 02 	sts	0x02B5, r24
     9d8:	08 95       	ret

000009da <setWateringFreq>:
     9da:	90 e0       	ldi	r25, 0x00	; 0
     9dc:	90 93 b8 02 	sts	0x02B8, r25
     9e0:	80 93 b7 02 	sts	0x02B7, r24
     9e4:	08 95       	ret

000009e6 <getSaved>:
     9e6:	80 91 ad 02 	lds	r24, 0x02AD
     9ea:	08 95       	ret

000009ec <getTemperature>:
     9ec:	80 91 af 02 	lds	r24, 0x02AF
     9f0:	08 95       	ret

000009f2 <getHumidity>:
     9f2:	80 91 b1 02 	lds	r24, 0x02B1
     9f6:	08 95       	ret

000009f8 <getLighting>:
     9f8:	80 91 b3 02 	lds	r24, 0x02B3
     9fc:	08 95       	ret

000009fe <getWateringAmount>:
     9fe:	80 91 b5 02 	lds	r24, 0x02B5
     a02:	08 95       	ret

00000a04 <getWateringFreq>:
     a04:	80 91 b7 02 	lds	r24, 0x02B7
     a08:	08 95       	ret

00000a0a <printInt>:
     a0a:	cf 93       	push	r28
     a0c:	df 93       	push	r29
     a0e:	1f 92       	push	r1
     a10:	cd b7       	in	r28, 0x3d	; 61
     a12:	de b7       	in	r29, 0x3e	; 62
     a14:	49 83       	std	Y+1, r20	; 0x01
     a16:	0e 94 4d 07 	call	0xe9a	; 0xe9a <lcd_locate>
     a1a:	49 81       	ldd	r20, Y+1	; 0x01
     a1c:	84 2f       	mov	r24, r20
     a1e:	90 e0       	ldi	r25, 0x00	; 0
     a20:	0f 90       	pop	r0
     a22:	df 91       	pop	r29
     a24:	cf 91       	pop	r28
     a26:	0c 94 ab 06 	jmp	0xd56	; 0xd56 <lcd_int>

00000a2a <printTime>:
     a2a:	4a 30       	cpi	r20, 0x0A	; 10
     a2c:	08 f4       	brcc	.+2      	; 0xa30 <printTime+0x6>
     a2e:	6f 5f       	subi	r22, 0xFF	; 255
     a30:	0c 94 05 05 	jmp	0xa0a	; 0xa0a <printInt>

00000a34 <display_change_time>:
     a34:	0e 94 54 07 	call	0xea8	; 0xea8 <lcd_cls>
     a38:	60 e0       	ldi	r22, 0x00	; 0
     a3a:	80 e0       	ldi	r24, 0x00	; 0
     a3c:	0e 94 4d 07 	call	0xe9a	; 0xe9a <lcd_locate>
     a40:	8e e0       	ldi	r24, 0x0E	; 14
     a42:	91 e0       	ldi	r25, 0x01	; 1
     a44:	0e 94 7f 06 	call	0xcfe	; 0xcfe <lcd_str>
     a48:	40 91 69 00 	lds	r20, 0x0069
     a4c:	60 e0       	ldi	r22, 0x00	; 0
     a4e:	81 e0       	ldi	r24, 0x01	; 1
     a50:	0e 94 15 05 	call	0xa2a	; 0xa2a <printTime>
     a54:	62 e0       	ldi	r22, 0x02	; 2
     a56:	81 e0       	ldi	r24, 0x01	; 1
     a58:	0e 94 4d 07 	call	0xe9a	; 0xe9a <lcd_locate>
     a5c:	8a e3       	ldi	r24, 0x3A	; 58
     a5e:	0e 94 78 06 	call	0xcf0	; 0xcf0 <lcd_char>
     a62:	40 91 6a 00 	lds	r20, 0x006A
     a66:	63 e0       	ldi	r22, 0x03	; 3
     a68:	81 e0       	ldi	r24, 0x01	; 1
     a6a:	0c 94 15 05 	jmp	0xa2a	; 0xa2a <printTime>

00000a6e <change_hour>:
     a6e:	0e 94 1a 05 	call	0xa34	; 0xa34 <display_change_time>
     a72:	61 e0       	ldi	r22, 0x01	; 1
     a74:	81 e0       	ldi	r24, 0x01	; 1
     a76:	0e 94 4d 07 	call	0xe9a	; 0xe9a <lcd_locate>
     a7a:	0e 94 68 07 	call	0xed0	; 0xed0 <lcd_cursor_on>
     a7e:	0e 94 ea 01 	call	0x3d4	; 0x3d4 <read_key>
     a82:	80 91 08 02 	lds	r24, 0x0208
     a86:	81 30       	cpi	r24, 0x01	; 1
     a88:	19 f0       	breq	.+6      	; 0xa90 <change_hour+0x22>
     a8a:	82 30       	cpi	r24, 0x02	; 2
     a8c:	61 f0       	breq	.+24     	; 0xaa6 <change_hour+0x38>
     a8e:	08 95       	ret
     a90:	80 91 69 00 	lds	r24, 0x0069
     a94:	8f 5f       	subi	r24, 0xFF	; 255
     a96:	80 93 69 00 	sts	0x0069, r24
     a9a:	88 31       	cpi	r24, 0x18	; 24
     a9c:	10 f0       	brcs	.+4      	; 0xaa2 <change_hour+0x34>
     a9e:	10 92 69 00 	sts	0x0069, r1
     aa2:	0c 94 1a 05 	jmp	0xa34	; 0xa34 <display_change_time>
     aa6:	80 91 69 00 	lds	r24, 0x0069
     aaa:	81 50       	subi	r24, 0x01	; 1
     aac:	80 93 69 00 	sts	0x0069, r24
     ab0:	89 31       	cpi	r24, 0x19	; 25
     ab2:	b8 f3       	brcs	.-18     	; 0xaa2 <change_hour+0x34>
     ab4:	87 e1       	ldi	r24, 0x17	; 23
     ab6:	80 93 69 00 	sts	0x0069, r24
     aba:	f3 cf       	rjmp	.-26     	; 0xaa2 <change_hour+0x34>

00000abc <change_minute>:
     abc:	0e 94 1a 05 	call	0xa34	; 0xa34 <display_change_time>
     ac0:	64 e0       	ldi	r22, 0x04	; 4
     ac2:	81 e0       	ldi	r24, 0x01	; 1
     ac4:	0e 94 4d 07 	call	0xe9a	; 0xe9a <lcd_locate>
     ac8:	0e 94 68 07 	call	0xed0	; 0xed0 <lcd_cursor_on>
     acc:	0e 94 ea 01 	call	0x3d4	; 0x3d4 <read_key>
     ad0:	80 91 08 02 	lds	r24, 0x0208
     ad4:	81 30       	cpi	r24, 0x01	; 1
     ad6:	19 f0       	breq	.+6      	; 0xade <change_minute+0x22>
     ad8:	82 30       	cpi	r24, 0x02	; 2
     ada:	61 f0       	breq	.+24     	; 0xaf4 <change_minute+0x38>
     adc:	08 95       	ret
     ade:	80 91 6a 00 	lds	r24, 0x006A
     ae2:	8f 5f       	subi	r24, 0xFF	; 255
     ae4:	80 93 6a 00 	sts	0x006A, r24
     ae8:	8c 33       	cpi	r24, 0x3C	; 60
     aea:	10 f0       	brcs	.+4      	; 0xaf0 <change_minute+0x34>
     aec:	10 92 6a 00 	sts	0x006A, r1
     af0:	0c 94 1a 05 	jmp	0xa34	; 0xa34 <display_change_time>
     af4:	80 91 6a 00 	lds	r24, 0x006A
     af8:	81 50       	subi	r24, 0x01	; 1
     afa:	80 93 6a 00 	sts	0x006A, r24
     afe:	80 91 69 00 	lds	r24, 0x0069
     b02:	8c 33       	cpi	r24, 0x3C	; 60
     b04:	a8 f3       	brcs	.-22     	; 0xaf0 <change_minute+0x34>
     b06:	8b e3       	ldi	r24, 0x3B	; 59
     b08:	80 93 6a 00 	sts	0x006A, r24
     b0c:	f1 cf       	rjmp	.-30     	; 0xaf0 <change_minute+0x34>

00000b0e <check_water_level>:
     b0e:	87 b1       	in	r24, 0x07	; 7
     b10:	88 7f       	andi	r24, 0xF8	; 248
     b12:	81 60       	ori	r24, 0x01	; 1
     b14:	87 b9       	out	0x07, r24	; 7
     b16:	83 ef       	ldi	r24, 0xF3	; 243
     b18:	91 e0       	ldi	r25, 0x01	; 1
     b1a:	01 97       	sbiw	r24, 0x01	; 1
     b1c:	f1 f7       	brne	.-4      	; 0xb1a <check_water_level+0xc>
     b1e:	00 c0       	rjmp	.+0      	; 0xb20 <check_water_level+0x12>
     b20:	00 00       	nop
     b22:	86 b1       	in	r24, 0x06	; 6
     b24:	86 60       	ori	r24, 0x06	; 6
     b26:	86 b9       	out	0x06, r24	; 6
     b28:	3e 9a       	sbi	0x07, 6	; 7
     b2a:	36 9a       	sbi	0x06, 6	; 6
     b2c:	36 99       	sbic	0x06, 6	; 6
     b2e:	fe cf       	rjmp	.-4      	; 0xb2c <check_water_level+0x1e>
     b30:	84 b1       	in	r24, 0x04	; 4
     b32:	95 b1       	in	r25, 0x05	; 5
     b34:	80 93 3f 02 	sts	0x023F, r24
     b38:	80 91 3f 02 	lds	r24, 0x023F
     b3c:	1f 92       	push	r1
     b3e:	8f 93       	push	r24
     b40:	8e e1       	ldi	r24, 0x1E	; 30
     b42:	91 e0       	ldi	r25, 0x01	; 1
     b44:	9f 93       	push	r25
     b46:	8f 93       	push	r24
     b48:	81 e1       	ldi	r24, 0x11	; 17
     b4a:	92 e0       	ldi	r25, 0x02	; 2
     b4c:	9f 93       	push	r25
     b4e:	8f 93       	push	r24
     b50:	0e 94 c9 0c 	call	0x1992	; 0x1992 <sprintf>
     b54:	0f 90       	pop	r0
     b56:	0f 90       	pop	r0
     b58:	0f 90       	pop	r0
     b5a:	0f 90       	pop	r0
     b5c:	0f 90       	pop	r0
     b5e:	0f 90       	pop	r0
     b60:	08 95       	ret

00000b62 <check_if_water>:
     b62:	cb 9b       	sbis	0x19, 3	; 25
     b64:	04 c0       	rjmp	.+8      	; 0xb6e <check_if_water+0xc>
     b66:	81 e0       	ldi	r24, 0x01	; 1
     b68:	80 93 3e 02 	sts	0x023E, r24
     b6c:	08 95       	ret
     b6e:	cb 9b       	sbis	0x19, 3	; 25
     b70:	10 92 3e 02 	sts	0x023E, r1
     b74:	08 95       	ret

00000b76 <watering>:
     b76:	80 91 61 00 	lds	r24, 0x0061
     b7a:	84 36       	cpi	r24, 0x64	; 100
     b7c:	49 f4       	brne	.+18     	; 0xb90 <watering+0x1a>
     b7e:	92 9a       	sbi	0x12, 2	; 18
     b80:	2f ef       	ldi	r18, 0xFF	; 255
     b82:	89 e6       	ldi	r24, 0x69	; 105
     b84:	98 e1       	ldi	r25, 0x18	; 24
     b86:	21 50       	subi	r18, 0x01	; 1
     b88:	80 40       	sbci	r24, 0x00	; 0
     b8a:	90 40       	sbci	r25, 0x00	; 0
     b8c:	e1 f7       	brne	.-8      	; 0xb86 <watering+0x10>
     b8e:	0a c0       	rjmp	.+20     	; 0xba4 <watering+0x2e>
     b90:	88 3c       	cpi	r24, 0xC8	; 200
     b92:	59 f4       	brne	.+22     	; 0xbaa <watering+0x34>
     b94:	92 9a       	sbi	0x12, 2	; 18
     b96:	2f ef       	ldi	r18, 0xFF	; 255
     b98:	83 ed       	ldi	r24, 0xD3	; 211
     b9a:	90 e3       	ldi	r25, 0x30	; 48
     b9c:	21 50       	subi	r18, 0x01	; 1
     b9e:	80 40       	sbci	r24, 0x00	; 0
     ba0:	90 40       	sbci	r25, 0x00	; 0
     ba2:	e1 f7       	brne	.-8      	; 0xb9c <watering+0x26>
     ba4:	00 c0       	rjmp	.+0      	; 0xba6 <watering+0x30>
     ba6:	00 00       	nop
     ba8:	92 98       	cbi	0x12, 2	; 18
     baa:	08 95       	ret

00000bac <check_hour>:
     bac:	25 e3       	ldi	r18, 0x35	; 53
     bae:	32 e0       	ldi	r19, 0x02	; 2
     bb0:	47 e0       	ldi	r20, 0x07	; 7
     bb2:	60 e0       	ldi	r22, 0x00	; 0
     bb4:	80 ed       	ldi	r24, 0xD0	; 208
     bb6:	0e 94 96 08 	call	0x112c	; 0x112c <I2C_READ_BUFFER>
     bba:	80 91 37 02 	lds	r24, 0x0237
     bbe:	0e 94 ea 08 	call	0x11d4	; 0x11d4 <bcd2dec>
     bc2:	80 93 10 02 	sts	0x0210, r24
     bc6:	08 95       	ret

00000bc8 <save_parameters>:
     bc8:	81 e0       	ldi	r24, 0x01	; 1
     bca:	90 e0       	ldi	r25, 0x00	; 0
     bcc:	90 93 ae 02 	sts	0x02AE, r25
     bd0:	80 93 ad 02 	sts	0x02AD, r24
     bd4:	80 91 64 00 	lds	r24, 0x0064
     bd8:	90 e0       	ldi	r25, 0x00	; 0
     bda:	90 93 b0 02 	sts	0x02B0, r25
     bde:	80 93 af 02 	sts	0x02AF, r24
     be2:	80 91 65 00 	lds	r24, 0x0065
     be6:	90 e0       	ldi	r25, 0x00	; 0
     be8:	90 93 b2 02 	sts	0x02B2, r25
     bec:	80 93 b1 02 	sts	0x02B1, r24
     bf0:	80 91 63 00 	lds	r24, 0x0063
     bf4:	90 e0       	ldi	r25, 0x00	; 0
     bf6:	90 93 b4 02 	sts	0x02B4, r25
     bfa:	80 93 b3 02 	sts	0x02B3, r24
     bfe:	80 91 61 00 	lds	r24, 0x0061
     c02:	90 e0       	ldi	r25, 0x00	; 0
     c04:	90 93 b6 02 	sts	0x02B6, r25
     c08:	80 93 b5 02 	sts	0x02B5, r24
     c0c:	80 91 60 00 	lds	r24, 0x0060
     c10:	90 e0       	ldi	r25, 0x00	; 0
     c12:	90 93 b8 02 	sts	0x02B8, r25
     c16:	80 93 b7 02 	sts	0x02B7, r24
     c1a:	4c e0       	ldi	r20, 0x0C	; 12
     c1c:	50 e0       	ldi	r21, 0x00	; 0
     c1e:	60 e0       	ldi	r22, 0x00	; 0
     c20:	70 e0       	ldi	r23, 0x00	; 0
     c22:	8d ea       	ldi	r24, 0xAD	; 173
     c24:	92 e0       	ldi	r25, 0x02	; 2
     c26:	0c 94 d5 0e 	jmp	0x1daa	; 0x1daa <__eeupd_block_m32>

00000c2a <read_parameters>:
     c2a:	4c e0       	ldi	r20, 0x0C	; 12
     c2c:	50 e0       	ldi	r21, 0x00	; 0
     c2e:	60 e0       	ldi	r22, 0x00	; 0
     c30:	70 e0       	ldi	r23, 0x00	; 0
     c32:	8d ea       	ldi	r24, 0xAD	; 173
     c34:	92 e0       	ldi	r25, 0x02	; 2
     c36:	0e 94 bd 0e 	call	0x1d7a	; 0x1d7a <__eerd_block_m32>
     c3a:	80 91 ad 02 	lds	r24, 0x02AD
     c3e:	80 93 06 02 	sts	0x0206, r24
     c42:	80 91 af 02 	lds	r24, 0x02AF
     c46:	80 93 64 00 	sts	0x0064, r24
     c4a:	80 91 b1 02 	lds	r24, 0x02B1
     c4e:	80 93 65 00 	sts	0x0065, r24
     c52:	80 91 b3 02 	lds	r24, 0x02B3
     c56:	80 93 63 00 	sts	0x0063, r24
     c5a:	80 91 b5 02 	lds	r24, 0x02B5
     c5e:	80 93 61 00 	sts	0x0061, r24
     c62:	80 91 b7 02 	lds	r24, 0x02B7
     c66:	80 93 60 00 	sts	0x0060, r24
     c6a:	08 95       	ret

00000c6c <save>:
     c6c:	0e 94 e4 05 	call	0xbc8	; 0xbc8 <save_parameters>
     c70:	60 e0       	ldi	r22, 0x00	; 0
     c72:	80 e0       	ldi	r24, 0x00	; 0
     c74:	0e 94 4d 07 	call	0xe9a	; 0xe9a <lcd_locate>
     c78:	83 e2       	ldi	r24, 0x23	; 35
     c7a:	91 e0       	ldi	r25, 0x01	; 1
     c7c:	0c 94 7f 06 	jmp	0xcfe	; 0xcfe <lcd_str>

00000c80 <data_dir_out>:
     c80:	a7 9a       	sbi	0x14, 7	; 20
     c82:	a6 9a       	sbi	0x14, 6	; 20
     c84:	a5 9a       	sbi	0x14, 5	; 20
     c86:	a4 9a       	sbi	0x14, 4	; 20
     c88:	08 95       	ret

00000c8a <lcd_sendHalf>:
     c8a:	80 ff       	sbrs	r24, 0
     c8c:	02 c0       	rjmp	.+4      	; 0xc92 <lcd_sendHalf+0x8>
     c8e:	ac 9a       	sbi	0x15, 4	; 21
     c90:	01 c0       	rjmp	.+2      	; 0xc94 <lcd_sendHalf+0xa>
     c92:	ac 98       	cbi	0x15, 4	; 21
     c94:	81 ff       	sbrs	r24, 1
     c96:	02 c0       	rjmp	.+4      	; 0xc9c <lcd_sendHalf+0x12>
     c98:	ad 9a       	sbi	0x15, 5	; 21
     c9a:	01 c0       	rjmp	.+2      	; 0xc9e <lcd_sendHalf+0x14>
     c9c:	ad 98       	cbi	0x15, 5	; 21
     c9e:	82 ff       	sbrs	r24, 2
     ca0:	02 c0       	rjmp	.+4      	; 0xca6 <lcd_sendHalf+0x1c>
     ca2:	ae 9a       	sbi	0x15, 6	; 21
     ca4:	01 c0       	rjmp	.+2      	; 0xca8 <lcd_sendHalf+0x1e>
     ca6:	ae 98       	cbi	0x15, 6	; 21
     ca8:	83 ff       	sbrs	r24, 3
     caa:	02 c0       	rjmp	.+4      	; 0xcb0 <lcd_sendHalf+0x26>
     cac:	af 9a       	sbi	0x15, 7	; 21
     cae:	08 95       	ret
     cb0:	af 98       	cbi	0x15, 7	; 21
     cb2:	08 95       	ret

00000cb4 <_lcd_write_byte>:
     cb4:	cf 93       	push	r28
     cb6:	c8 2f       	mov	r28, r24
     cb8:	0e 94 40 06 	call	0xc80	; 0xc80 <data_dir_out>
     cbc:	ab 9a       	sbi	0x15, 3	; 21
     cbe:	8c 2f       	mov	r24, r28
     cc0:	82 95       	swap	r24
     cc2:	8f 70       	andi	r24, 0x0F	; 15
     cc4:	0e 94 45 06 	call	0xc8a	; 0xc8a <lcd_sendHalf>
     cc8:	ab 98       	cbi	0x15, 3	; 21
     cca:	ab 9a       	sbi	0x15, 3	; 21
     ccc:	8c 2f       	mov	r24, r28
     cce:	0e 94 45 06 	call	0xc8a	; 0xc8a <lcd_sendHalf>
     cd2:	ab 98       	cbi	0x15, 3	; 21
     cd4:	8f ee       	ldi	r24, 0xEF	; 239
     cd6:	90 e0       	ldi	r25, 0x00	; 0
     cd8:	01 97       	sbiw	r24, 0x01	; 1
     cda:	f1 f7       	brne	.-4      	; 0xcd8 <_lcd_write_byte+0x24>
     cdc:	00 c0       	rjmp	.+0      	; 0xcde <_lcd_write_byte+0x2a>
     cde:	00 00       	nop
     ce0:	cf 91       	pop	r28
     ce2:	08 95       	ret

00000ce4 <lcd_write_cmd>:
     ce4:	aa 98       	cbi	0x15, 2	; 21
     ce6:	0c 94 5a 06 	jmp	0xcb4	; 0xcb4 <_lcd_write_byte>

00000cea <lcd_write_data>:
     cea:	aa 9a       	sbi	0x15, 2	; 21
     cec:	0c 94 5a 06 	jmp	0xcb4	; 0xcb4 <_lcd_write_byte>

00000cf0 <lcd_char>:
     cf0:	90 e8       	ldi	r25, 0x80	; 128
     cf2:	98 0f       	add	r25, r24
     cf4:	98 30       	cpi	r25, 0x08	; 8
     cf6:	08 f4       	brcc	.+2      	; 0xcfa <lcd_char+0xa>
     cf8:	87 70       	andi	r24, 0x07	; 7
     cfa:	0c 94 75 06 	jmp	0xcea	; 0xcea <lcd_write_data>

00000cfe <lcd_str>:
     cfe:	cf 93       	push	r28
     d00:	df 93       	push	r29
     d02:	ec 01       	movw	r28, r24
     d04:	89 91       	ld	r24, Y+
     d06:	88 23       	and	r24, r24
     d08:	19 f0       	breq	.+6      	; 0xd10 <lcd_str+0x12>
     d0a:	0e 94 78 06 	call	0xcf0	; 0xcf0 <lcd_char>
     d0e:	fa cf       	rjmp	.-12     	; 0xd04 <lcd_str+0x6>
     d10:	df 91       	pop	r29
     d12:	cf 91       	pop	r28
     d14:	08 95       	ret

00000d16 <lcd_str_P>:
     d16:	cf 93       	push	r28
     d18:	df 93       	push	r29
     d1a:	fc 01       	movw	r30, r24
     d1c:	84 91       	lpm	r24, Z
     d1e:	ef 01       	movw	r28, r30
     d20:	21 96       	adiw	r28, 0x01	; 1
     d22:	88 23       	and	r24, r24
     d24:	21 f0       	breq	.+8      	; 0xd2e <lcd_str_P+0x18>
     d26:	0e 94 78 06 	call	0xcf0	; 0xcf0 <lcd_char>
     d2a:	fe 01       	movw	r30, r28
     d2c:	f7 cf       	rjmp	.-18     	; 0xd1c <lcd_str_P+0x6>
     d2e:	df 91       	pop	r29
     d30:	cf 91       	pop	r28
     d32:	08 95       	ret

00000d34 <lcd_str_E>:
     d34:	cf 93       	push	r28
     d36:	df 93       	push	r29
     d38:	ec 01       	movw	r28, r24
     d3a:	21 96       	adiw	r28, 0x01	; 1
     d3c:	0e 94 cd 0e 	call	0x1d9a	; 0x1d9a <__eerd_byte_m32>
     d40:	9f ef       	ldi	r25, 0xFF	; 255
     d42:	98 0f       	add	r25, r24
     d44:	9e 3f       	cpi	r25, 0xFE	; 254
     d46:	20 f4       	brcc	.+8      	; 0xd50 <lcd_str_E+0x1c>
     d48:	0e 94 78 06 	call	0xcf0	; 0xcf0 <lcd_char>
     d4c:	ce 01       	movw	r24, r28
     d4e:	f4 cf       	rjmp	.-24     	; 0xd38 <lcd_str_E+0x4>
     d50:	df 91       	pop	r29
     d52:	cf 91       	pop	r28
     d54:	08 95       	ret

00000d56 <lcd_int>:
     d56:	cf 93       	push	r28
     d58:	df 93       	push	r29
     d5a:	cd b7       	in	r28, 0x3d	; 61
     d5c:	de b7       	in	r29, 0x3e	; 62
     d5e:	61 97       	sbiw	r28, 0x11	; 17
     d60:	0f b6       	in	r0, 0x3f	; 63
     d62:	f8 94       	cli
     d64:	de bf       	out	0x3e, r29	; 62
     d66:	0f be       	out	0x3f, r0	; 63
     d68:	cd bf       	out	0x3d, r28	; 61
     d6a:	4a e0       	ldi	r20, 0x0A	; 10
     d6c:	be 01       	movw	r22, r28
     d6e:	6f 5f       	subi	r22, 0xFF	; 255
     d70:	7f 4f       	sbci	r23, 0xFF	; 255
     d72:	0e 94 73 0c 	call	0x18e6	; 0x18e6 <__itoa_ncheck>
     d76:	0e 94 7f 06 	call	0xcfe	; 0xcfe <lcd_str>
     d7a:	61 96       	adiw	r28, 0x11	; 17
     d7c:	0f b6       	in	r0, 0x3f	; 63
     d7e:	f8 94       	cli
     d80:	de bf       	out	0x3e, r29	; 62
     d82:	0f be       	out	0x3f, r0	; 63
     d84:	cd bf       	out	0x3d, r28	; 61
     d86:	df 91       	pop	r29
     d88:	cf 91       	pop	r28
     d8a:	08 95       	ret

00000d8c <lcd_hex>:
     d8c:	cf 93       	push	r28
     d8e:	df 93       	push	r29
     d90:	cd b7       	in	r28, 0x3d	; 61
     d92:	de b7       	in	r29, 0x3e	; 62
     d94:	61 97       	sbiw	r28, 0x11	; 17
     d96:	0f b6       	in	r0, 0x3f	; 63
     d98:	f8 94       	cli
     d9a:	de bf       	out	0x3e, r29	; 62
     d9c:	0f be       	out	0x3f, r0	; 63
     d9e:	cd bf       	out	0x3d, r28	; 61
     da0:	20 e1       	ldi	r18, 0x10	; 16
     da2:	ae 01       	movw	r20, r28
     da4:	4f 5f       	subi	r20, 0xFF	; 255
     da6:	5f 4f       	sbci	r21, 0xFF	; 255
     da8:	0e 94 7e 0c 	call	0x18fc	; 0x18fc <__ltoa_ncheck>
     dac:	0e 94 7f 06 	call	0xcfe	; 0xcfe <lcd_str>
     db0:	61 96       	adiw	r28, 0x11	; 17
     db2:	0f b6       	in	r0, 0x3f	; 63
     db4:	f8 94       	cli
     db6:	de bf       	out	0x3e, r29	; 62
     db8:	0f be       	out	0x3f, r0	; 63
     dba:	cd bf       	out	0x3d, r28	; 61
     dbc:	df 91       	pop	r29
     dbe:	cf 91       	pop	r28
     dc0:	08 95       	ret

00000dc2 <lcd_defchar>:
     dc2:	ef 92       	push	r14
     dc4:	ff 92       	push	r15
     dc6:	0f 93       	push	r16
     dc8:	1f 93       	push	r17
     dca:	cf 93       	push	r28
     dcc:	df 93       	push	r29
     dce:	00 d0       	rcall	.+0      	; 0xdd0 <lcd_defchar+0xe>
     dd0:	cd b7       	in	r28, 0x3d	; 61
     dd2:	de b7       	in	r29, 0x3e	; 62
     dd4:	87 70       	andi	r24, 0x07	; 7
     dd6:	88 0f       	add	r24, r24
     dd8:	88 0f       	add	r24, r24
     dda:	88 0f       	add	r24, r24
     ddc:	80 5c       	subi	r24, 0xC0	; 192
     dde:	69 83       	std	Y+1, r22	; 0x01
     de0:	7a 83       	std	Y+2, r23	; 0x02
     de2:	0e 94 72 06 	call	0xce4	; 0xce4 <lcd_write_cmd>
     de6:	69 81       	ldd	r22, Y+1	; 0x01
     de8:	e6 2e       	mov	r14, r22
     dea:	7a 81       	ldd	r23, Y+2	; 0x02
     dec:	f7 2e       	mov	r15, r23
     dee:	87 01       	movw	r16, r14
     df0:	08 5f       	subi	r16, 0xF8	; 248
     df2:	1f 4f       	sbci	r17, 0xFF	; 255
     df4:	f7 01       	movw	r30, r14
     df6:	81 91       	ld	r24, Z+
     df8:	7f 01       	movw	r14, r30
     dfa:	0e 94 75 06 	call	0xcea	; 0xcea <lcd_write_data>
     dfe:	e0 16       	cp	r14, r16
     e00:	f1 06       	cpc	r15, r17
     e02:	c1 f7       	brne	.-16     	; 0xdf4 <lcd_defchar+0x32>
     e04:	0f 90       	pop	r0
     e06:	0f 90       	pop	r0
     e08:	df 91       	pop	r29
     e0a:	cf 91       	pop	r28
     e0c:	1f 91       	pop	r17
     e0e:	0f 91       	pop	r16
     e10:	ff 90       	pop	r15
     e12:	ef 90       	pop	r14
     e14:	08 95       	ret

00000e16 <lcd_defchar_P>:
     e16:	0f 93       	push	r16
     e18:	1f 93       	push	r17
     e1a:	cf 93       	push	r28
     e1c:	df 93       	push	r29
     e1e:	eb 01       	movw	r28, r22
     e20:	87 70       	andi	r24, 0x07	; 7
     e22:	88 0f       	add	r24, r24
     e24:	88 0f       	add	r24, r24
     e26:	88 0f       	add	r24, r24
     e28:	80 5c       	subi	r24, 0xC0	; 192
     e2a:	0e 94 72 06 	call	0xce4	; 0xce4 <lcd_write_cmd>
     e2e:	8e 01       	movw	r16, r28
     e30:	08 5f       	subi	r16, 0xF8	; 248
     e32:	1f 4f       	sbci	r17, 0xFF	; 255
     e34:	fe 01       	movw	r30, r28
     e36:	84 91       	lpm	r24, Z
     e38:	0e 94 75 06 	call	0xcea	; 0xcea <lcd_write_data>
     e3c:	21 96       	adiw	r28, 0x01	; 1
     e3e:	c0 17       	cp	r28, r16
     e40:	d1 07       	cpc	r29, r17
     e42:	c1 f7       	brne	.-16     	; 0xe34 <lcd_defchar_P+0x1e>
     e44:	df 91       	pop	r29
     e46:	cf 91       	pop	r28
     e48:	1f 91       	pop	r17
     e4a:	0f 91       	pop	r16
     e4c:	08 95       	ret

00000e4e <lcd_defchar_E>:
     e4e:	ef 92       	push	r14
     e50:	ff 92       	push	r15
     e52:	0f 93       	push	r16
     e54:	1f 93       	push	r17
     e56:	cf 93       	push	r28
     e58:	df 93       	push	r29
     e5a:	eb 01       	movw	r28, r22
     e5c:	87 70       	andi	r24, 0x07	; 7
     e5e:	88 0f       	add	r24, r24
     e60:	88 0f       	add	r24, r24
     e62:	88 0f       	add	r24, r24
     e64:	80 5c       	subi	r24, 0xC0	; 192
     e66:	0e 94 72 06 	call	0xce4	; 0xce4 <lcd_write_cmd>
     e6a:	7e 01       	movw	r14, r28
     e6c:	88 e0       	ldi	r24, 0x08	; 8
     e6e:	e8 0e       	add	r14, r24
     e70:	f1 1c       	adc	r15, r1
     e72:	8e 01       	movw	r16, r28
     e74:	0f 5f       	subi	r16, 0xFF	; 255
     e76:	1f 4f       	sbci	r17, 0xFF	; 255
     e78:	ce 01       	movw	r24, r28
     e7a:	0e 94 cd 0e 	call	0x1d9a	; 0x1d9a <__eerd_byte_m32>
     e7e:	0e 94 75 06 	call	0xcea	; 0xcea <lcd_write_data>
     e82:	0e 15       	cp	r16, r14
     e84:	1f 05       	cpc	r17, r15
     e86:	11 f0       	breq	.+4      	; 0xe8c <lcd_defchar_E+0x3e>
     e88:	e8 01       	movw	r28, r16
     e8a:	f3 cf       	rjmp	.-26     	; 0xe72 <lcd_defchar_E+0x24>
     e8c:	df 91       	pop	r29
     e8e:	cf 91       	pop	r28
     e90:	1f 91       	pop	r17
     e92:	0f 91       	pop	r16
     e94:	ff 90       	pop	r15
     e96:	ef 90       	pop	r14
     e98:	08 95       	ret

00000e9a <lcd_locate>:
     e9a:	81 30       	cpi	r24, 0x01	; 1
     e9c:	09 f4       	brne	.+2      	; 0xea0 <lcd_locate+0x6>
     e9e:	80 e4       	ldi	r24, 0x40	; 64
     ea0:	60 58       	subi	r22, 0x80	; 128
     ea2:	86 0f       	add	r24, r22
     ea4:	0c 94 72 06 	jmp	0xce4	; 0xce4 <lcd_write_cmd>

00000ea8 <lcd_cls>:
     ea8:	81 e0       	ldi	r24, 0x01	; 1
     eaa:	0e 94 72 06 	call	0xce4	; 0xce4 <lcd_write_cmd>
     eae:	87 e4       	ldi	r24, 0x47	; 71
     eb0:	96 e2       	ldi	r25, 0x26	; 38
     eb2:	01 97       	sbiw	r24, 0x01	; 1
     eb4:	f1 f7       	brne	.-4      	; 0xeb2 <lcd_cls+0xa>
     eb6:	00 c0       	rjmp	.+0      	; 0xeb8 <lcd_cls+0x10>
     eb8:	00 00       	nop
     eba:	08 95       	ret

00000ebc <lcd_home>:
     ebc:	83 e0       	ldi	r24, 0x03	; 3
     ebe:	0e 94 72 06 	call	0xce4	; 0xce4 <lcd_write_cmd>
     ec2:	87 e4       	ldi	r24, 0x47	; 71
     ec4:	96 e2       	ldi	r25, 0x26	; 38
     ec6:	01 97       	sbiw	r24, 0x01	; 1
     ec8:	f1 f7       	brne	.-4      	; 0xec6 <lcd_home+0xa>
     eca:	00 c0       	rjmp	.+0      	; 0xecc <lcd_home+0x10>
     ecc:	00 00       	nop
     ece:	08 95       	ret

00000ed0 <lcd_cursor_on>:
     ed0:	8e e0       	ldi	r24, 0x0E	; 14
     ed2:	0c 94 72 06 	jmp	0xce4	; 0xce4 <lcd_write_cmd>

00000ed6 <lcd_cursor_off>:
     ed6:	8c e0       	ldi	r24, 0x0C	; 12
     ed8:	0c 94 72 06 	jmp	0xce4	; 0xce4 <lcd_write_cmd>

00000edc <lcd_blink_on>:
     edc:	8f e0       	ldi	r24, 0x0F	; 15
     ede:	0c 94 72 06 	jmp	0xce4	; 0xce4 <lcd_write_cmd>

00000ee2 <lcd_blink_off>:
     ee2:	8c e0       	ldi	r24, 0x0C	; 12
     ee4:	0c 94 72 06 	jmp	0xce4	; 0xce4 <lcd_write_cmd>

00000ee8 <lcd_init>:
     ee8:	cf 93       	push	r28
     eea:	df 93       	push	r29
     eec:	cd b7       	in	r28, 0x3d	; 61
     eee:	de b7       	in	r29, 0x3e	; 62
     ef0:	c0 54       	subi	r28, 0x40	; 64
     ef2:	d1 09       	sbc	r29, r1
     ef4:	0f b6       	in	r0, 0x3f	; 63
     ef6:	f8 94       	cli
     ef8:	de bf       	out	0x3e, r29	; 62
     efa:	0f be       	out	0x3f, r0	; 63
     efc:	cd bf       	out	0x3d, r28	; 61
     efe:	0e 94 40 06 	call	0xc80	; 0xc80 <data_dir_out>
     f02:	a2 9a       	sbi	0x14, 2	; 20
     f04:	a3 9a       	sbi	0x14, 3	; 20
     f06:	aa 9a       	sbi	0x15, 2	; 21
     f08:	ab 9a       	sbi	0x15, 3	; 21
     f0a:	8f e2       	ldi	r24, 0x2F	; 47
     f0c:	95 e7       	ldi	r25, 0x75	; 117
     f0e:	01 97       	sbiw	r24, 0x01	; 1
     f10:	f1 f7       	brne	.-4      	; 0xf0e <lcd_init+0x26>
     f12:	00 c0       	rjmp	.+0      	; 0xf14 <lcd_init+0x2c>
     f14:	00 00       	nop
     f16:	ab 98       	cbi	0x15, 3	; 21
     f18:	aa 98       	cbi	0x15, 2	; 21
     f1a:	ab 9a       	sbi	0x15, 3	; 21
     f1c:	83 e0       	ldi	r24, 0x03	; 3
     f1e:	0e 94 45 06 	call	0xc8a	; 0xc8a <lcd_sendHalf>
     f22:	ab 98       	cbi	0x15, 3	; 21
     f24:	87 e0       	ldi	r24, 0x07	; 7
     f26:	90 e2       	ldi	r25, 0x20	; 32
     f28:	01 97       	sbiw	r24, 0x01	; 1
     f2a:	f1 f7       	brne	.-4      	; 0xf28 <lcd_init+0x40>
     f2c:	00 c0       	rjmp	.+0      	; 0xf2e <lcd_init+0x46>
     f2e:	00 00       	nop
     f30:	ab 9a       	sbi	0x15, 3	; 21
     f32:	83 e0       	ldi	r24, 0x03	; 3
     f34:	0e 94 45 06 	call	0xc8a	; 0xc8a <lcd_sendHalf>
     f38:	ab 98       	cbi	0x15, 3	; 21
     f3a:	87 ec       	ldi	r24, 0xC7	; 199
     f3c:	90 e0       	ldi	r25, 0x00	; 0
     f3e:	01 97       	sbiw	r24, 0x01	; 1
     f40:	f1 f7       	brne	.-4      	; 0xf3e <lcd_init+0x56>
     f42:	00 c0       	rjmp	.+0      	; 0xf44 <lcd_init+0x5c>
     f44:	00 00       	nop
     f46:	ab 9a       	sbi	0x15, 3	; 21
     f48:	83 e0       	ldi	r24, 0x03	; 3
     f4a:	0e 94 45 06 	call	0xc8a	; 0xc8a <lcd_sendHalf>
     f4e:	ab 98       	cbi	0x15, 3	; 21
     f50:	87 ec       	ldi	r24, 0xC7	; 199
     f52:	90 e0       	ldi	r25, 0x00	; 0
     f54:	01 97       	sbiw	r24, 0x01	; 1
     f56:	f1 f7       	brne	.-4      	; 0xf54 <lcd_init+0x6c>
     f58:	00 c0       	rjmp	.+0      	; 0xf5a <lcd_init+0x72>
     f5a:	00 00       	nop
     f5c:	ab 9a       	sbi	0x15, 3	; 21
     f5e:	82 e0       	ldi	r24, 0x02	; 2
     f60:	0e 94 45 06 	call	0xc8a	; 0xc8a <lcd_sendHalf>
     f64:	ab 98       	cbi	0x15, 3	; 21
     f66:	87 ec       	ldi	r24, 0xC7	; 199
     f68:	90 e0       	ldi	r25, 0x00	; 0
     f6a:	01 97       	sbiw	r24, 0x01	; 1
     f6c:	f1 f7       	brne	.-4      	; 0xf6a <lcd_init+0x82>
     f6e:	00 c0       	rjmp	.+0      	; 0xf70 <lcd_init+0x88>
     f70:	00 00       	nop
     f72:	88 e2       	ldi	r24, 0x28	; 40
     f74:	0e 94 72 06 	call	0xce4	; 0xce4 <lcd_write_cmd>
     f78:	88 e0       	ldi	r24, 0x08	; 8
     f7a:	0e 94 72 06 	call	0xce4	; 0xce4 <lcd_write_cmd>
     f7e:	8c e0       	ldi	r24, 0x0C	; 12
     f80:	0e 94 72 06 	call	0xce4	; 0xce4 <lcd_write_cmd>
     f84:	86 e0       	ldi	r24, 0x06	; 6
     f86:	0e 94 72 06 	call	0xce4	; 0xce4 <lcd_write_cmd>
     f8a:	0e 94 54 07 	call	0xea8	; 0xea8 <lcd_cls>
     f8e:	88 e0       	ldi	r24, 0x08	; 8
     f90:	eb e6       	ldi	r30, 0x6B	; 107
     f92:	f0 e0       	ldi	r31, 0x00	; 0
     f94:	de 01       	movw	r26, r28
     f96:	d9 96       	adiw	r26, 0x39	; 57
     f98:	01 90       	ld	r0, Z+
     f9a:	0d 92       	st	X+, r0
     f9c:	8a 95       	dec	r24
     f9e:	e1 f7       	brne	.-8      	; 0xf98 <lcd_init+0xb0>
     fa0:	88 e0       	ldi	r24, 0x08	; 8
     fa2:	e3 e7       	ldi	r30, 0x73	; 115
     fa4:	f0 e0       	ldi	r31, 0x00	; 0
     fa6:	de 01       	movw	r26, r28
     fa8:	d1 96       	adiw	r26, 0x31	; 49
     faa:	01 90       	ld	r0, Z+
     fac:	0d 92       	st	X+, r0
     fae:	8a 95       	dec	r24
     fb0:	e1 f7       	brne	.-8      	; 0xfaa <lcd_init+0xc2>
     fb2:	88 e0       	ldi	r24, 0x08	; 8
     fb4:	eb e7       	ldi	r30, 0x7B	; 123
     fb6:	f0 e0       	ldi	r31, 0x00	; 0
     fb8:	de 01       	movw	r26, r28
     fba:	99 96       	adiw	r26, 0x29	; 41
     fbc:	01 90       	ld	r0, Z+
     fbe:	0d 92       	st	X+, r0
     fc0:	8a 95       	dec	r24
     fc2:	e1 f7       	brne	.-8      	; 0xfbc <lcd_init+0xd4>
     fc4:	88 e0       	ldi	r24, 0x08	; 8
     fc6:	e3 e8       	ldi	r30, 0x83	; 131
     fc8:	f0 e0       	ldi	r31, 0x00	; 0
     fca:	de 01       	movw	r26, r28
     fcc:	91 96       	adiw	r26, 0x21	; 33
     fce:	01 90       	ld	r0, Z+
     fd0:	0d 92       	st	X+, r0
     fd2:	8a 95       	dec	r24
     fd4:	e1 f7       	brne	.-8      	; 0xfce <lcd_init+0xe6>
     fd6:	88 e0       	ldi	r24, 0x08	; 8
     fd8:	eb e8       	ldi	r30, 0x8B	; 139
     fda:	f0 e0       	ldi	r31, 0x00	; 0
     fdc:	de 01       	movw	r26, r28
     fde:	59 96       	adiw	r26, 0x19	; 25
     fe0:	01 90       	ld	r0, Z+
     fe2:	0d 92       	st	X+, r0
     fe4:	8a 95       	dec	r24
     fe6:	e1 f7       	brne	.-8      	; 0xfe0 <lcd_init+0xf8>
     fe8:	88 e0       	ldi	r24, 0x08	; 8
     fea:	e3 e9       	ldi	r30, 0x93	; 147
     fec:	f0 e0       	ldi	r31, 0x00	; 0
     fee:	de 01       	movw	r26, r28
     ff0:	51 96       	adiw	r26, 0x11	; 17
     ff2:	01 90       	ld	r0, Z+
     ff4:	0d 92       	st	X+, r0
     ff6:	8a 95       	dec	r24
     ff8:	e1 f7       	brne	.-8      	; 0xff2 <lcd_init+0x10a>
     ffa:	88 e0       	ldi	r24, 0x08	; 8
     ffc:	eb e9       	ldi	r30, 0x9B	; 155
     ffe:	f0 e0       	ldi	r31, 0x00	; 0
    1000:	de 01       	movw	r26, r28
    1002:	19 96       	adiw	r26, 0x09	; 9
    1004:	01 90       	ld	r0, Z+
    1006:	0d 92       	st	X+, r0
    1008:	8a 95       	dec	r24
    100a:	e1 f7       	brne	.-8      	; 0x1004 <lcd_init+0x11c>
    100c:	88 e0       	ldi	r24, 0x08	; 8
    100e:	e3 ea       	ldi	r30, 0xA3	; 163
    1010:	f0 e0       	ldi	r31, 0x00	; 0
    1012:	de 01       	movw	r26, r28
    1014:	11 96       	adiw	r26, 0x01	; 1
    1016:	01 90       	ld	r0, Z+
    1018:	0d 92       	st	X+, r0
    101a:	8a 95       	dec	r24
    101c:	e1 f7       	brne	.-8      	; 0x1016 <lcd_init+0x12e>
    101e:	be 01       	movw	r22, r28
    1020:	67 5c       	subi	r22, 0xC7	; 199
    1022:	7f 4f       	sbci	r23, 0xFF	; 255
    1024:	80 e8       	ldi	r24, 0x80	; 128
    1026:	0e 94 e1 06 	call	0xdc2	; 0xdc2 <lcd_defchar>
    102a:	be 01       	movw	r22, r28
    102c:	6f 5c       	subi	r22, 0xCF	; 207
    102e:	7f 4f       	sbci	r23, 0xFF	; 255
    1030:	81 e8       	ldi	r24, 0x81	; 129
    1032:	0e 94 e1 06 	call	0xdc2	; 0xdc2 <lcd_defchar>
    1036:	be 01       	movw	r22, r28
    1038:	67 5d       	subi	r22, 0xD7	; 215
    103a:	7f 4f       	sbci	r23, 0xFF	; 255
    103c:	82 e8       	ldi	r24, 0x82	; 130
    103e:	0e 94 e1 06 	call	0xdc2	; 0xdc2 <lcd_defchar>
    1042:	be 01       	movw	r22, r28
    1044:	6f 5d       	subi	r22, 0xDF	; 223
    1046:	7f 4f       	sbci	r23, 0xFF	; 255
    1048:	83 e8       	ldi	r24, 0x83	; 131
    104a:	0e 94 e1 06 	call	0xdc2	; 0xdc2 <lcd_defchar>
    104e:	be 01       	movw	r22, r28
    1050:	67 5e       	subi	r22, 0xE7	; 231
    1052:	7f 4f       	sbci	r23, 0xFF	; 255
    1054:	84 e8       	ldi	r24, 0x84	; 132
    1056:	0e 94 e1 06 	call	0xdc2	; 0xdc2 <lcd_defchar>
    105a:	be 01       	movw	r22, r28
    105c:	6f 5e       	subi	r22, 0xEF	; 239
    105e:	7f 4f       	sbci	r23, 0xFF	; 255
    1060:	85 e8       	ldi	r24, 0x85	; 133
    1062:	0e 94 e1 06 	call	0xdc2	; 0xdc2 <lcd_defchar>
    1066:	be 01       	movw	r22, r28
    1068:	67 5f       	subi	r22, 0xF7	; 247
    106a:	7f 4f       	sbci	r23, 0xFF	; 255
    106c:	86 e8       	ldi	r24, 0x86	; 134
    106e:	0e 94 e1 06 	call	0xdc2	; 0xdc2 <lcd_defchar>
    1072:	be 01       	movw	r22, r28
    1074:	6f 5f       	subi	r22, 0xFF	; 255
    1076:	7f 4f       	sbci	r23, 0xFF	; 255
    1078:	87 e8       	ldi	r24, 0x87	; 135
    107a:	0e 94 e1 06 	call	0xdc2	; 0xdc2 <lcd_defchar>
    107e:	c0 5c       	subi	r28, 0xC0	; 192
    1080:	df 4f       	sbci	r29, 0xFF	; 255
    1082:	0f b6       	in	r0, 0x3f	; 63
    1084:	f8 94       	cli
    1086:	de bf       	out	0x3e, r29	; 62
    1088:	0f be       	out	0x3f, r0	; 63
    108a:	cd bf       	out	0x3d, r28	; 61
    108c:	df 91       	pop	r29
    108e:	cf 91       	pop	r28
    1090:	08 95       	ret

00001092 <I2C_START>:
    1092:	84 ea       	ldi	r24, 0xA4	; 164
    1094:	86 bf       	out	0x36, r24	; 54
    1096:	06 b6       	in	r0, 0x36	; 54
    1098:	07 fe       	sbrs	r0, 7
    109a:	fd cf       	rjmp	.-6      	; 0x1096 <I2C_START+0x4>
    109c:	08 95       	ret

0000109e <I2C_STOP>:
    109e:	84 e9       	ldi	r24, 0x94	; 148
    10a0:	86 bf       	out	0x36, r24	; 54
    10a2:	06 b6       	in	r0, 0x36	; 54
    10a4:	04 fc       	sbrc	r0, 4
    10a6:	fd cf       	rjmp	.-6      	; 0x10a2 <I2C_STOP+0x4>
    10a8:	08 95       	ret

000010aa <I2C_WRITE>:
    10aa:	83 b9       	out	0x03, r24	; 3
    10ac:	84 e8       	ldi	r24, 0x84	; 132
    10ae:	86 bf       	out	0x36, r24	; 54
    10b0:	06 b6       	in	r0, 0x36	; 54
    10b2:	07 fe       	sbrs	r0, 7
    10b4:	fd cf       	rjmp	.-6      	; 0x10b0 <I2C_WRITE+0x6>
    10b6:	08 95       	ret

000010b8 <I2C_READ>:
    10b8:	20 e4       	ldi	r18, 0x40	; 64
    10ba:	82 9f       	mul	r24, r18
    10bc:	c0 01       	movw	r24, r0
    10be:	11 24       	eor	r1, r1
    10c0:	84 68       	ori	r24, 0x84	; 132
    10c2:	86 bf       	out	0x36, r24	; 54
    10c4:	06 b6       	in	r0, 0x36	; 54
    10c6:	07 fe       	sbrs	r0, 7
    10c8:	fd cf       	rjmp	.-6      	; 0x10c4 <I2C_READ+0xc>
    10ca:	83 b1       	in	r24, 0x03	; 3
    10cc:	08 95       	ret

000010ce <I2C_WRITE_BUFFER>:
    10ce:	ef 92       	push	r14
    10d0:	ff 92       	push	r15
    10d2:	1f 93       	push	r17
    10d4:	cf 93       	push	r28
    10d6:	df 93       	push	r29
    10d8:	00 d0       	rcall	.+0      	; 0x10da <I2C_WRITE_BUFFER+0xc>
    10da:	00 d0       	rcall	.+0      	; 0x10dc <I2C_WRITE_BUFFER+0xe>
    10dc:	cd b7       	in	r28, 0x3d	; 61
    10de:	de b7       	in	r29, 0x3e	; 62
    10e0:	14 2f       	mov	r17, r20
    10e2:	2b 83       	std	Y+3, r18	; 0x03
    10e4:	3c 83       	std	Y+4, r19	; 0x04
    10e6:	6a 83       	std	Y+2, r22	; 0x02
    10e8:	89 83       	std	Y+1, r24	; 0x01
    10ea:	0e 94 49 08 	call	0x1092	; 0x1092 <I2C_START>
    10ee:	89 81       	ldd	r24, Y+1	; 0x01
    10f0:	0e 94 55 08 	call	0x10aa	; 0x10aa <I2C_WRITE>
    10f4:	6a 81       	ldd	r22, Y+2	; 0x02
    10f6:	86 2f       	mov	r24, r22
    10f8:	0e 94 55 08 	call	0x10aa	; 0x10aa <I2C_WRITE>
    10fc:	2b 81       	ldd	r18, Y+3	; 0x03
    10fe:	e2 2e       	mov	r14, r18
    1100:	3c 81       	ldd	r19, Y+4	; 0x04
    1102:	f3 2e       	mov	r15, r19
    1104:	12 0f       	add	r17, r18
    1106:	1e 15       	cp	r17, r14
    1108:	31 f0       	breq	.+12     	; 0x1116 <I2C_WRITE_BUFFER+0x48>
    110a:	f7 01       	movw	r30, r14
    110c:	81 91       	ld	r24, Z+
    110e:	7f 01       	movw	r14, r30
    1110:	0e 94 55 08 	call	0x10aa	; 0x10aa <I2C_WRITE>
    1114:	f8 cf       	rjmp	.-16     	; 0x1106 <I2C_WRITE_BUFFER+0x38>
    1116:	0f 90       	pop	r0
    1118:	0f 90       	pop	r0
    111a:	0f 90       	pop	r0
    111c:	0f 90       	pop	r0
    111e:	df 91       	pop	r29
    1120:	cf 91       	pop	r28
    1122:	1f 91       	pop	r17
    1124:	ff 90       	pop	r15
    1126:	ef 90       	pop	r14
    1128:	0c 94 4f 08 	jmp	0x109e	; 0x109e <I2C_STOP>

0000112c <I2C_READ_BUFFER>:
    112c:	ef 92       	push	r14
    112e:	ff 92       	push	r15
    1130:	1f 93       	push	r17
    1132:	cf 93       	push	r28
    1134:	df 93       	push	r29
    1136:	00 d0       	rcall	.+0      	; 0x1138 <I2C_READ_BUFFER+0xc>
    1138:	1f 92       	push	r1
    113a:	cd b7       	in	r28, 0x3d	; 61
    113c:	de b7       	in	r29, 0x3e	; 62
    113e:	f8 2e       	mov	r15, r24
    1140:	14 2f       	mov	r17, r20
    1142:	2a 83       	std	Y+2, r18	; 0x02
    1144:	3b 83       	std	Y+3, r19	; 0x03
    1146:	69 83       	std	Y+1, r22	; 0x01
    1148:	0e 94 49 08 	call	0x1092	; 0x1092 <I2C_START>
    114c:	8f 2d       	mov	r24, r15
    114e:	0e 94 55 08 	call	0x10aa	; 0x10aa <I2C_WRITE>
    1152:	69 81       	ldd	r22, Y+1	; 0x01
    1154:	86 2f       	mov	r24, r22
    1156:	0e 94 55 08 	call	0x10aa	; 0x10aa <I2C_WRITE>
    115a:	0e 94 49 08 	call	0x1092	; 0x1092 <I2C_START>
    115e:	81 e0       	ldi	r24, 0x01	; 1
    1160:	8f 0d       	add	r24, r15
    1162:	0e 94 55 08 	call	0x10aa	; 0x10aa <I2C_WRITE>
    1166:	11 50       	subi	r17, 0x01	; 1
    1168:	2a 81       	ldd	r18, Y+2	; 0x02
    116a:	e2 2e       	mov	r14, r18
    116c:	3b 81       	ldd	r19, Y+3	; 0x03
    116e:	f3 2e       	mov	r15, r19
    1170:	1f 3f       	cpi	r17, 0xFF	; 255
    1172:	59 f0       	breq	.+22     	; 0x118a <I2C_READ_BUFFER+0x5e>
    1174:	81 e0       	ldi	r24, 0x01	; 1
    1176:	11 11       	cpse	r17, r1
    1178:	01 c0       	rjmp	.+2      	; 0x117c <I2C_READ_BUFFER+0x50>
    117a:	80 e0       	ldi	r24, 0x00	; 0
    117c:	0e 94 5c 08 	call	0x10b8	; 0x10b8 <I2C_READ>
    1180:	f7 01       	movw	r30, r14
    1182:	81 93       	st	Z+, r24
    1184:	7f 01       	movw	r14, r30
    1186:	11 50       	subi	r17, 0x01	; 1
    1188:	f3 cf       	rjmp	.-26     	; 0x1170 <I2C_READ_BUFFER+0x44>
    118a:	0f 90       	pop	r0
    118c:	0f 90       	pop	r0
    118e:	0f 90       	pop	r0
    1190:	df 91       	pop	r29
    1192:	cf 91       	pop	r28
    1194:	1f 91       	pop	r17
    1196:	ff 90       	pop	r15
    1198:	ef 90       	pop	r14
    119a:	0c 94 4f 08 	jmp	0x109e	; 0x109e <I2C_STOP>

0000119e <i2cSetBitrate>:
    119e:	bc 01       	movw	r22, r24
    11a0:	80 e4       	ldi	r24, 0x40	; 64
    11a2:	9f e1       	ldi	r25, 0x1F	; 31
    11a4:	0e 94 24 0b 	call	0x1648	; 0x1648 <__udivmodhi4>
    11a8:	86 2f       	mov	r24, r22
    11aa:	60 31       	cpi	r22, 0x10	; 16
    11ac:	38 f0       	brcs	.+14     	; 0x11bc <i2cSetBitrate+0x1e>
    11ae:	77 27       	eor	r23, r23
    11b0:	cb 01       	movw	r24, r22
    11b2:	40 97       	sbiw	r24, 0x10	; 16
    11b4:	97 fd       	sbrc	r25, 7
    11b6:	01 96       	adiw	r24, 0x01	; 1
    11b8:	95 95       	asr	r25
    11ba:	87 95       	ror	r24
    11bc:	80 b9       	out	0x00, r24	; 0
    11be:	08 95       	ret

000011c0 <dec2bcd>:
    11c0:	6a e0       	ldi	r22, 0x0A	; 10
    11c2:	0e 94 18 0b 	call	0x1630	; 0x1630 <__udivmodqi4>
    11c6:	29 2f       	mov	r18, r25
    11c8:	30 e1       	ldi	r19, 0x10	; 16
    11ca:	83 9f       	mul	r24, r19
    11cc:	c0 01       	movw	r24, r0
    11ce:	11 24       	eor	r1, r1
    11d0:	82 2b       	or	r24, r18
    11d2:	08 95       	ret

000011d4 <bcd2dec>:
    11d4:	98 2f       	mov	r25, r24
    11d6:	92 95       	swap	r25
    11d8:	9f 70       	andi	r25, 0x0F	; 15
    11da:	8f 70       	andi	r24, 0x0F	; 15
    11dc:	2a e0       	ldi	r18, 0x0A	; 10
    11de:	92 9f       	mul	r25, r18
    11e0:	80 0d       	add	r24, r0
    11e2:	11 24       	eor	r1, r1
    11e4:	08 95       	ret

000011e6 <pokaz_godzine>:
    11e6:	08 95       	ret

000011e8 <dht_getdata>:
    11e8:	cf 92       	push	r12
    11ea:	df 92       	push	r13
    11ec:	ef 92       	push	r14
    11ee:	ff 92       	push	r15
    11f0:	0f 93       	push	r16
    11f2:	1f 93       	push	r17
    11f4:	cf 93       	push	r28
    11f6:	df 93       	push	r29
    11f8:	00 d0       	rcall	.+0      	; 0x11fa <dht_getdata+0x12>
    11fa:	00 d0       	rcall	.+0      	; 0x11fc <dht_getdata+0x14>
    11fc:	1f 92       	push	r1
    11fe:	cd b7       	in	r28, 0x3d	; 61
    1200:	de b7       	in	r29, 0x3e	; 62
    1202:	6c 01       	movw	r12, r24
    1204:	8b 01       	movw	r16, r22
    1206:	fe 01       	movw	r30, r28
    1208:	31 96       	adiw	r30, 0x01	; 1
    120a:	85 e0       	ldi	r24, 0x05	; 5
    120c:	df 01       	movw	r26, r30
    120e:	1d 92       	st	X+, r1
    1210:	8a 95       	dec	r24
    1212:	e9 f7       	brne	.-6      	; 0x120e <dht_getdata+0x26>
    1214:	b8 9a       	sbi	0x17, 0	; 23
    1216:	c0 9a       	sbi	0x18, 0	; 24
    1218:	bf ef       	ldi	r27, 0xFF	; 255
    121a:	e0 e7       	ldi	r30, 0x70	; 112
    121c:	f2 e0       	ldi	r31, 0x02	; 2
    121e:	b1 50       	subi	r27, 0x01	; 1
    1220:	e0 40       	sbci	r30, 0x00	; 0
    1222:	f0 40       	sbci	r31, 0x00	; 0
    1224:	e1 f7       	brne	.-8      	; 0x121e <dht_getdata+0x36>
    1226:	00 c0       	rjmp	.+0      	; 0x1228 <dht_getdata+0x40>
    1228:	00 00       	nop
    122a:	c0 98       	cbi	0x18, 0	; 24
    122c:	87 ee       	ldi	r24, 0xE7	; 231
    122e:	93 e0       	ldi	r25, 0x03	; 3
    1230:	01 97       	sbiw	r24, 0x01	; 1
    1232:	f1 f7       	brne	.-4      	; 0x1230 <dht_getdata+0x48>
    1234:	00 c0       	rjmp	.+0      	; 0x1236 <dht_getdata+0x4e>
    1236:	00 00       	nop
    1238:	c0 9a       	sbi	0x18, 0	; 24
    123a:	b8 98       	cbi	0x17, 0	; 23
    123c:	9a e6       	ldi	r25, 0x6A	; 106
    123e:	9a 95       	dec	r25
    1240:	f1 f7       	brne	.-4      	; 0x123e <dht_getdata+0x56>
    1242:	00 c0       	rjmp	.+0      	; 0x1244 <dht_getdata+0x5c>
    1244:	b0 9b       	sbis	0x16, 0	; 22
    1246:	02 c0       	rjmp	.+4      	; 0x124c <dht_getdata+0x64>
    1248:	8f ef       	ldi	r24, 0xFF	; 255
    124a:	85 c0       	rjmp	.+266    	; 0x1356 <dht_getdata+0x16e>
    124c:	a5 ed       	ldi	r26, 0xD5	; 213
    124e:	aa 95       	dec	r26
    1250:	f1 f7       	brne	.-4      	; 0x124e <dht_getdata+0x66>
    1252:	00 00       	nop
    1254:	b0 9b       	sbis	0x16, 0	; 22
    1256:	f8 cf       	rjmp	.-16     	; 0x1248 <dht_getdata+0x60>
    1258:	b5 ed       	ldi	r27, 0xD5	; 213
    125a:	ba 95       	dec	r27
    125c:	f1 f7       	brne	.-4      	; 0x125a <dht_getdata+0x72>
    125e:	00 00       	nop
    1260:	fe 01       	movw	r30, r28
    1262:	31 96       	adiw	r30, 0x01	; 1
    1264:	ae 01       	movw	r20, r28
    1266:	4a 5f       	subi	r20, 0xFA	; 250
    1268:	5f 4f       	sbci	r21, 0xFF	; 255
    126a:	61 e0       	ldi	r22, 0x01	; 1
    126c:	70 e0       	ldi	r23, 0x00	; 0
    126e:	87 e0       	ldi	r24, 0x07	; 7
    1270:	90 e0       	ldi	r25, 0x00	; 0
    1272:	a0 e0       	ldi	r26, 0x00	; 0
    1274:	29 ec       	ldi	r18, 0xC9	; 201
    1276:	30 e0       	ldi	r19, 0x00	; 0
    1278:	b0 99       	sbic	0x16, 0	; 22
    127a:	06 c0       	rjmp	.+12     	; 0x1288 <dht_getdata+0xa0>
    127c:	21 50       	subi	r18, 0x01	; 1
    127e:	31 09       	sbc	r19, r1
    1280:	21 15       	cp	r18, r1
    1282:	31 05       	cpc	r19, r1
    1284:	c9 f7       	brne	.-14     	; 0x1278 <dht_getdata+0x90>
    1286:	e0 cf       	rjmp	.-64     	; 0x1248 <dht_getdata+0x60>
    1288:	20 e5       	ldi	r18, 0x50	; 80
    128a:	2a 95       	dec	r18
    128c:	f1 f7       	brne	.-4      	; 0x128a <dht_getdata+0xa2>
    128e:	b0 9b       	sbis	0x16, 0	; 22
    1290:	07 c0       	rjmp	.+14     	; 0x12a0 <dht_getdata+0xb8>
    1292:	9b 01       	movw	r18, r22
    1294:	08 2e       	mov	r0, r24
    1296:	01 c0       	rjmp	.+2      	; 0x129a <dht_getdata+0xb2>
    1298:	22 0f       	add	r18, r18
    129a:	0a 94       	dec	r0
    129c:	ea f7       	brpl	.-6      	; 0x1298 <dht_getdata+0xb0>
    129e:	a2 2b       	or	r26, r18
    12a0:	29 ec       	ldi	r18, 0xC9	; 201
    12a2:	30 e0       	ldi	r19, 0x00	; 0
    12a4:	b0 9b       	sbis	0x16, 0	; 22
    12a6:	06 c0       	rjmp	.+12     	; 0x12b4 <dht_getdata+0xcc>
    12a8:	21 50       	subi	r18, 0x01	; 1
    12aa:	31 09       	sbc	r19, r1
    12ac:	21 15       	cp	r18, r1
    12ae:	31 05       	cpc	r19, r1
    12b0:	c9 f7       	brne	.-14     	; 0x12a4 <dht_getdata+0xbc>
    12b2:	ca cf       	rjmp	.-108    	; 0x1248 <dht_getdata+0x60>
    12b4:	01 97       	sbiw	r24, 0x01	; 1
    12b6:	f0 f6       	brcc	.-68     	; 0x1274 <dht_getdata+0x8c>
    12b8:	a1 93       	st	Z+, r26
    12ba:	e4 17       	cp	r30, r20
    12bc:	f5 07       	cpc	r31, r21
    12be:	b9 f6       	brne	.-82     	; 0x126e <dht_getdata+0x86>
    12c0:	b8 9a       	sbi	0x17, 0	; 23
    12c2:	c0 9a       	sbi	0x18, 0	; 24
    12c4:	ef ef       	ldi	r30, 0xFF	; 255
    12c6:	f0 e7       	ldi	r31, 0x70	; 112
    12c8:	22 e0       	ldi	r18, 0x02	; 2
    12ca:	e1 50       	subi	r30, 0x01	; 1
    12cc:	f0 40       	sbci	r31, 0x00	; 0
    12ce:	20 40       	sbci	r18, 0x00	; 0
    12d0:	e1 f7       	brne	.-8      	; 0x12ca <dht_getdata+0xe2>
    12d2:	00 c0       	rjmp	.+0      	; 0x12d4 <dht_getdata+0xec>
    12d4:	00 00       	nop
    12d6:	29 81       	ldd	r18, Y+1	; 0x01
    12d8:	ea 80       	ldd	r14, Y+2	; 0x02
    12da:	9b 81       	ldd	r25, Y+3	; 0x03
    12dc:	6c 81       	ldd	r22, Y+4	; 0x04
    12de:	8e 2d       	mov	r24, r14
    12e0:	82 0f       	add	r24, r18
    12e2:	89 0f       	add	r24, r25
    12e4:	86 0f       	add	r24, r22
    12e6:	3d 81       	ldd	r19, Y+5	; 0x05
    12e8:	83 13       	cpse	r24, r19
    12ea:	ae cf       	rjmp	.-164    	; 0x1248 <dht_getdata+0x60>
    12ec:	f1 2c       	mov	r15, r1
    12ee:	f2 2a       	or	r15, r18
    12f0:	70 e0       	ldi	r23, 0x00	; 0
    12f2:	79 2b       	or	r23, r25
    12f4:	77 ff       	sbrs	r23, 7
    12f6:	11 c0       	rjmp	.+34     	; 0x131a <dht_getdata+0x132>
    12f8:	7f 77       	andi	r23, 0x7F	; 127
    12fa:	80 e0       	ldi	r24, 0x00	; 0
    12fc:	90 e0       	ldi	r25, 0x00	; 0
    12fe:	0e 94 e5 0b 	call	0x17ca	; 0x17ca <__floatunsisf>
    1302:	20 e0       	ldi	r18, 0x00	; 0
    1304:	30 e0       	ldi	r19, 0x00	; 0
    1306:	40 e2       	ldi	r20, 0x20	; 32
    1308:	51 e4       	ldi	r21, 0x41	; 65
    130a:	0e 94 4c 0b 	call	0x1698	; 0x1698 <__divsf3>
    130e:	90 58       	subi	r25, 0x80	; 128
    1310:	0e 94 b4 0b 	call	0x1768	; 0x1768 <__fixsfsi>
    1314:	d6 01       	movw	r26, r12
    1316:	6c 93       	st	X, r22
    1318:	0e c0       	rjmp	.+28     	; 0x1336 <dht_getdata+0x14e>
    131a:	80 e0       	ldi	r24, 0x00	; 0
    131c:	90 e0       	ldi	r25, 0x00	; 0
    131e:	0e 94 e5 0b 	call	0x17ca	; 0x17ca <__floatunsisf>
    1322:	20 e0       	ldi	r18, 0x00	; 0
    1324:	30 e0       	ldi	r19, 0x00	; 0
    1326:	40 e2       	ldi	r20, 0x20	; 32
    1328:	51 e4       	ldi	r21, 0x41	; 65
    132a:	0e 94 4c 0b 	call	0x1698	; 0x1698 <__divsf3>
    132e:	0e 94 b4 0b 	call	0x1768	; 0x1768 <__fixsfsi>
    1332:	f6 01       	movw	r30, r12
    1334:	60 83       	st	Z, r22
    1336:	b7 01       	movw	r22, r14
    1338:	80 e0       	ldi	r24, 0x00	; 0
    133a:	90 e0       	ldi	r25, 0x00	; 0
    133c:	0e 94 e5 0b 	call	0x17ca	; 0x17ca <__floatunsisf>
    1340:	20 e0       	ldi	r18, 0x00	; 0
    1342:	30 e0       	ldi	r19, 0x00	; 0
    1344:	40 e2       	ldi	r20, 0x20	; 32
    1346:	51 e4       	ldi	r21, 0x41	; 65
    1348:	0e 94 4c 0b 	call	0x1698	; 0x1698 <__divsf3>
    134c:	0e 94 b4 0b 	call	0x1768	; 0x1768 <__fixsfsi>
    1350:	d8 01       	movw	r26, r16
    1352:	6c 93       	st	X, r22
    1354:	80 e0       	ldi	r24, 0x00	; 0
    1356:	0f 90       	pop	r0
    1358:	0f 90       	pop	r0
    135a:	0f 90       	pop	r0
    135c:	0f 90       	pop	r0
    135e:	0f 90       	pop	r0
    1360:	df 91       	pop	r29
    1362:	cf 91       	pop	r28
    1364:	1f 91       	pop	r17
    1366:	0f 91       	pop	r16
    1368:	ff 90       	pop	r15
    136a:	ef 90       	pop	r14
    136c:	df 90       	pop	r13
    136e:	cf 90       	pop	r12
    1370:	08 95       	ret

00001372 <dht_gettemperature>:
    1372:	cf 93       	push	r28
    1374:	df 93       	push	r29
    1376:	1f 92       	push	r1
    1378:	cd b7       	in	r28, 0x3d	; 61
    137a:	de b7       	in	r29, 0x3e	; 62
    137c:	19 82       	std	Y+1, r1	; 0x01
    137e:	be 01       	movw	r22, r28
    1380:	6f 5f       	subi	r22, 0xFF	; 255
    1382:	7f 4f       	sbci	r23, 0xFF	; 255
    1384:	0e 94 f4 08 	call	0x11e8	; 0x11e8 <dht_getdata>
    1388:	0f 90       	pop	r0
    138a:	df 91       	pop	r29
    138c:	cf 91       	pop	r28
    138e:	08 95       	ret

00001390 <dht_gethumidity>:
    1390:	cf 93       	push	r28
    1392:	df 93       	push	r29
    1394:	1f 92       	push	r1
    1396:	cd b7       	in	r28, 0x3d	; 61
    1398:	de b7       	in	r29, 0x3e	; 62
    139a:	19 82       	std	Y+1, r1	; 0x01
    139c:	bc 01       	movw	r22, r24
    139e:	ce 01       	movw	r24, r28
    13a0:	01 96       	adiw	r24, 0x01	; 1
    13a2:	0e 94 f4 08 	call	0x11e8	; 0x11e8 <dht_getdata>
    13a6:	0f 90       	pop	r0
    13a8:	df 91       	pop	r29
    13aa:	cf 91       	pop	r28
    13ac:	08 95       	ret

000013ae <dht_gettemperaturehumidity>:
    13ae:	0c 94 f4 08 	jmp	0x11e8	; 0x11e8 <dht_getdata>

000013b2 <get_temp_hum>:
    13b2:	6a e0       	ldi	r22, 0x0A	; 10
    13b4:	72 e0       	ldi	r23, 0x02	; 2
    13b6:	8b e0       	ldi	r24, 0x0B	; 11
    13b8:	92 e0       	ldi	r25, 0x02	; 2
    13ba:	0e 94 f4 08 	call	0x11e8	; 0x11e8 <dht_getdata>
    13be:	8f 3f       	cpi	r24, 0xFF	; 255
    13c0:	a1 f0       	breq	.+40     	; 0x13ea <get_temp_hum+0x38>
    13c2:	80 91 0b 02 	lds	r24, 0x020B
    13c6:	4a e0       	ldi	r20, 0x0A	; 10
    13c8:	68 e4       	ldi	r22, 0x48	; 72
    13ca:	72 e0       	ldi	r23, 0x02	; 2
    13cc:	99 27       	eor	r25, r25
    13ce:	87 fd       	sbrc	r24, 7
    13d0:	90 95       	com	r25
    13d2:	0e 94 73 0c 	call	0x18e6	; 0x18e6 <__itoa_ncheck>
    13d6:	80 91 0a 02 	lds	r24, 0x020A
    13da:	4a e0       	ldi	r20, 0x0A	; 10
    13dc:	68 e4       	ldi	r22, 0x48	; 72
    13de:	72 e0       	ldi	r23, 0x02	; 2
    13e0:	99 27       	eor	r25, r25
    13e2:	87 fd       	sbrc	r24, 7
    13e4:	90 95       	com	r25
    13e6:	0c 94 73 0c 	jmp	0x18e6	; 0x18e6 <__itoa_ncheck>
    13ea:	60 e0       	ldi	r22, 0x00	; 0
    13ec:	80 e0       	ldi	r24, 0x00	; 0
    13ee:	0e 94 4d 07 	call	0xe9a	; 0xe9a <lcd_locate>
    13f2:	84 ee       	ldi	r24, 0xE4	; 228
    13f4:	91 e0       	ldi	r25, 0x01	; 1
    13f6:	0c 94 7f 06 	jmp	0xcfe	; 0xcfe <lcd_str>

000013fa <compare_temp_hum>:
    13fa:	20 91 0b 02 	lds	r18, 0x020B
    13fe:	33 27       	eor	r19, r19
    1400:	27 fd       	sbrc	r18, 7
    1402:	30 95       	com	r19
    1404:	80 91 64 00 	lds	r24, 0x0064
    1408:	90 e0       	ldi	r25, 0x00	; 0
    140a:	82 17       	cp	r24, r18
    140c:	93 07       	cpc	r25, r19
    140e:	34 f4       	brge	.+12     	; 0x141c <compare_temp_hum+0x22>
    1410:	81 e0       	ldi	r24, 0x01	; 1
    1412:	80 93 45 02 	sts	0x0245, r24
    1416:	10 92 46 02 	sts	0x0246, r1
    141a:	08 c0       	rjmp	.+16     	; 0x142c <compare_temp_hum+0x32>
    141c:	28 17       	cp	r18, r24
    141e:	39 07       	cpc	r19, r25
    1420:	2c f4       	brge	.+10     	; 0x142c <compare_temp_hum+0x32>
    1422:	81 e0       	ldi	r24, 0x01	; 1
    1424:	80 93 46 02 	sts	0x0246, r24
    1428:	10 92 45 02 	sts	0x0245, r1
    142c:	20 91 0a 02 	lds	r18, 0x020A
    1430:	33 27       	eor	r19, r19
    1432:	27 fd       	sbrc	r18, 7
    1434:	30 95       	com	r19
    1436:	80 91 65 00 	lds	r24, 0x0065
    143a:	90 e0       	ldi	r25, 0x00	; 0
    143c:	82 17       	cp	r24, r18
    143e:	93 07       	cpc	r25, r19
    1440:	34 f4       	brge	.+12     	; 0x144e <compare_temp_hum+0x54>
    1442:	81 e0       	ldi	r24, 0x01	; 1
    1444:	80 93 43 02 	sts	0x0243, r24
    1448:	10 92 44 02 	sts	0x0244, r1
    144c:	08 95       	ret
    144e:	28 17       	cp	r18, r24
    1450:	39 07       	cpc	r19, r25
    1452:	2c f4       	brge	.+10     	; 0x145e <compare_temp_hum+0x64>
    1454:	81 e0       	ldi	r24, 0x01	; 1
    1456:	80 93 44 02 	sts	0x0244, r24
    145a:	10 92 43 02 	sts	0x0243, r1
    145e:	08 95       	ret

00001460 <reg_temp>:
    1460:	80 91 43 02 	lds	r24, 0x0243
    1464:	81 30       	cpi	r24, 0x01	; 1
    1466:	19 f4       	brne	.+6      	; 0x146e <reg_temp+0xe>
    1468:	91 9a       	sbi	0x12, 1	; 18
    146a:	92 98       	cbi	0x12, 2	; 18
    146c:	08 95       	ret
    146e:	80 91 44 02 	lds	r24, 0x0244
    1472:	81 30       	cpi	r24, 0x01	; 1
    1474:	31 f4       	brne	.+12     	; 0x1482 <reg_temp+0x22>
    1476:	91 98       	cbi	0x12, 1	; 18
    1478:	80 91 34 02 	lds	r24, 0x0234
    147c:	81 30       	cpi	r24, 0x01	; 1
    147e:	09 f4       	brne	.+2      	; 0x1482 <reg_temp+0x22>
    1480:	92 9a       	sbi	0x12, 2	; 18
    1482:	08 95       	ret

00001484 <show_temp_hum>:
    1484:	6a e0       	ldi	r22, 0x0A	; 10
    1486:	72 e0       	ldi	r23, 0x02	; 2
    1488:	8b e0       	ldi	r24, 0x0B	; 11
    148a:	92 e0       	ldi	r25, 0x02	; 2
    148c:	0e 94 f4 08 	call	0x11e8	; 0x11e8 <dht_getdata>
    1490:	8f 3f       	cpi	r24, 0xFF	; 255
    1492:	99 f1       	breq	.+102    	; 0x14fa <show_temp_hum+0x76>
    1494:	80 91 0b 02 	lds	r24, 0x020B
    1498:	4a e0       	ldi	r20, 0x0A	; 10
    149a:	68 e4       	ldi	r22, 0x48	; 72
    149c:	72 e0       	ldi	r23, 0x02	; 2
    149e:	99 27       	eor	r25, r25
    14a0:	87 fd       	sbrc	r24, 7
    14a2:	90 95       	com	r25
    14a4:	0e 94 73 0c 	call	0x18e6	; 0x18e6 <__itoa_ncheck>
    14a8:	60 e0       	ldi	r22, 0x00	; 0
    14aa:	80 e0       	ldi	r24, 0x00	; 0
    14ac:	0e 94 4d 07 	call	0xe9a	; 0xe9a <lcd_locate>
    14b0:	8a ee       	ldi	r24, 0xEA	; 234
    14b2:	91 e0       	ldi	r25, 0x01	; 1
    14b4:	0e 94 7f 06 	call	0xcfe	; 0xcfe <lcd_str>
    14b8:	88 e4       	ldi	r24, 0x48	; 72
    14ba:	92 e0       	ldi	r25, 0x02	; 2
    14bc:	0e 94 7f 06 	call	0xcfe	; 0xcfe <lcd_str>
    14c0:	87 ec       	ldi	r24, 0xC7	; 199
    14c2:	90 e0       	ldi	r25, 0x00	; 0
    14c4:	0e 94 7f 06 	call	0xcfe	; 0xcfe <lcd_str>
    14c8:	80 91 0a 02 	lds	r24, 0x020A
    14cc:	4a e0       	ldi	r20, 0x0A	; 10
    14ce:	68 e4       	ldi	r22, 0x48	; 72
    14d0:	72 e0       	ldi	r23, 0x02	; 2
    14d2:	99 27       	eor	r25, r25
    14d4:	87 fd       	sbrc	r24, 7
    14d6:	90 95       	com	r25
    14d8:	0e 94 73 0c 	call	0x18e6	; 0x18e6 <__itoa_ncheck>
    14dc:	60 e0       	ldi	r22, 0x00	; 0
    14de:	81 e0       	ldi	r24, 0x01	; 1
    14e0:	0e 94 4d 07 	call	0xe9a	; 0xe9a <lcd_locate>
    14e4:	87 ef       	ldi	r24, 0xF7	; 247
    14e6:	91 e0       	ldi	r25, 0x01	; 1
    14e8:	0e 94 7f 06 	call	0xcfe	; 0xcfe <lcd_str>
    14ec:	88 e4       	ldi	r24, 0x48	; 72
    14ee:	92 e0       	ldi	r25, 0x02	; 2
    14f0:	0e 94 7f 06 	call	0xcfe	; 0xcfe <lcd_str>
    14f4:	85 ed       	ldi	r24, 0xD5	; 213
    14f6:	90 e0       	ldi	r25, 0x00	; 0
    14f8:	06 c0       	rjmp	.+12     	; 0x1506 <show_temp_hum+0x82>
    14fa:	60 e0       	ldi	r22, 0x00	; 0
    14fc:	80 e0       	ldi	r24, 0x00	; 0
    14fe:	0e 94 4d 07 	call	0xe9a	; 0xe9a <lcd_locate>
    1502:	84 ee       	ldi	r24, 0xE4	; 228
    1504:	91 e0       	ldi	r25, 0x01	; 1
    1506:	0e 94 7f 06 	call	0xcfe	; 0xcfe <lcd_str>
    150a:	0e 94 fd 09 	call	0x13fa	; 0x13fa <compare_temp_hum>
    150e:	0c 94 30 0a 	jmp	0x1460	; 0x1460 <reg_temp>

00001512 <licznik1_init>:
    1512:	8e b5       	in	r24, 0x2e	; 46
    1514:	84 60       	ori	r24, 0x04	; 4
    1516:	8e bd       	out	0x2e, r24	; 46
    1518:	8c ed       	ldi	r24, 0xDC	; 220
    151a:	9b e0       	ldi	r25, 0x0B	; 11
    151c:	9d bd       	out	0x2d, r25	; 45
    151e:	8c bd       	out	0x2c, r24	; 44
    1520:	89 b7       	in	r24, 0x39	; 57
    1522:	84 60       	ori	r24, 0x04	; 4
    1524:	89 bf       	out	0x39, r24	; 57
    1526:	78 94       	sei
    1528:	10 92 b9 02 	sts	0x02B9, r1
    152c:	08 95       	ret

0000152e <__vector_9>:
    152e:	1f 92       	push	r1
    1530:	0f 92       	push	r0
    1532:	0f b6       	in	r0, 0x3f	; 63
    1534:	0f 92       	push	r0
    1536:	11 24       	eor	r1, r1
    1538:	8f 93       	push	r24
    153a:	80 91 b9 02 	lds	r24, 0x02B9
    153e:	8f 5f       	subi	r24, 0xFF	; 255
    1540:	80 93 b9 02 	sts	0x02B9, r24
    1544:	80 91 b9 02 	lds	r24, 0x02B9
    1548:	8f 91       	pop	r24
    154a:	0f 90       	pop	r0
    154c:	0f be       	out	0x3f, r0	; 63
    154e:	0f 90       	pop	r0
    1550:	1f 90       	pop	r1
    1552:	18 95       	reti

00001554 <initialization>:
    1554:	0e 94 74 07 	call	0xee8	; 0xee8 <lcd_init>
    1558:	84 e6       	ldi	r24, 0x64	; 100
    155a:	90 e0       	ldi	r25, 0x00	; 0
    155c:	0e 94 cf 08 	call	0x119e	; 0x119e <i2cSetBitrate>
    1560:	d2 9a       	sbi	0x1a, 2	; 26
    1562:	d3 98       	cbi	0x1a, 3	; 26
    1564:	da 9a       	sbi	0x1b, 2	; 27
    1566:	0e 94 89 0a 	call	0x1512	; 0x1512 <licznik1_init>
    156a:	80 91 ad 02 	lds	r24, 0x02AD
    156e:	90 91 ae 02 	lds	r25, 0x02AE
    1572:	01 97       	sbiw	r24, 0x01	; 1
    1574:	11 f4       	brne	.+4      	; 0x157a <initialization+0x26>
    1576:	0c 94 15 06 	jmp	0xc2a	; 0xc2a <read_parameters>
    157a:	08 95       	ret

0000157c <pomiar>:
    157c:	80 e8       	ldi	r24, 0x80	; 128
    157e:	86 b9       	out	0x06, r24	; 6
    1580:	87 b1       	in	r24, 0x07	; 7
    1582:	88 7f       	andi	r24, 0xF8	; 248
    1584:	87 b9       	out	0x07, r24	; 7
    1586:	83 ef       	ldi	r24, 0xF3	; 243
    1588:	91 e0       	ldi	r25, 0x01	; 1
    158a:	01 97       	sbiw	r24, 0x01	; 1
    158c:	f1 f7       	brne	.-4      	; 0x158a <pomiar+0xe>
    158e:	00 c0       	rjmp	.+0      	; 0x1590 <pomiar+0x14>
    1590:	00 00       	nop
    1592:	86 b1       	in	r24, 0x06	; 6
    1594:	86 60       	ori	r24, 0x06	; 6
    1596:	86 b9       	out	0x06, r24	; 6
    1598:	87 b1       	in	r24, 0x07	; 7
    159a:	80 6c       	ori	r24, 0xC0	; 192
    159c:	87 b9       	out	0x07, r24	; 7
    159e:	36 9a       	sbi	0x06, 6	; 6
    15a0:	36 99       	sbic	0x06, 6	; 6
    15a2:	fe cf       	rjmp	.-4      	; 0x15a0 <pomiar+0x24>
    15a4:	84 b1       	in	r24, 0x04	; 4
    15a6:	95 b1       	in	r25, 0x05	; 5
    15a8:	90 93 42 02 	sts	0x0242, r25
    15ac:	80 93 41 02 	sts	0x0241, r24
    15b0:	80 91 41 02 	lds	r24, 0x0241
    15b4:	90 91 42 02 	lds	r25, 0x0242
    15b8:	9f 93       	push	r25
    15ba:	8f 93       	push	r24
    15bc:	8e e1       	ldi	r24, 0x1E	; 30
    15be:	91 e0       	ldi	r25, 0x01	; 1
    15c0:	9f 93       	push	r25
    15c2:	8f 93       	push	r24
    15c4:	83 e2       	ldi	r24, 0x23	; 35
    15c6:	92 e0       	ldi	r25, 0x02	; 2
    15c8:	9f 93       	push	r25
    15ca:	8f 93       	push	r24
    15cc:	0e 94 c9 0c 	call	0x1992	; 0x1992 <sprintf>
    15d0:	0f 90       	pop	r0
    15d2:	0f 90       	pop	r0
    15d4:	0f 90       	pop	r0
    15d6:	0f 90       	pop	r0
    15d8:	0f 90       	pop	r0
    15da:	0f 90       	pop	r0
    15dc:	08 95       	ret

000015de <main>:
    15de:	0e 94 aa 0a 	call	0x1554	; 0x1554 <initialization>
    15e2:	0e 94 15 06 	call	0xc2a	; 0xc2a <read_parameters>
    15e6:	40 91 ad 02 	lds	r20, 0x02AD
    15ea:	60 e0       	ldi	r22, 0x00	; 0
    15ec:	81 e0       	ldi	r24, 0x01	; 1
    15ee:	0e 94 05 05 	call	0xa0a	; 0xa0a <printInt>
    15f2:	40 91 af 02 	lds	r20, 0x02AF
    15f6:	62 e0       	ldi	r22, 0x02	; 2
    15f8:	81 e0       	ldi	r24, 0x01	; 1
    15fa:	0e 94 05 05 	call	0xa0a	; 0xa0a <printInt>
    15fe:	40 91 b1 02 	lds	r20, 0x02B1
    1602:	65 e0       	ldi	r22, 0x05	; 5
    1604:	81 e0       	ldi	r24, 0x01	; 1
    1606:	0e 94 05 05 	call	0xa0a	; 0xa0a <printInt>
    160a:	40 91 b3 02 	lds	r20, 0x02B3
    160e:	68 e0       	ldi	r22, 0x08	; 8
    1610:	81 e0       	ldi	r24, 0x01	; 1
    1612:	0e 94 05 05 	call	0xa0a	; 0xa0a <printInt>
    1616:	40 91 b5 02 	lds	r20, 0x02B5
    161a:	6b e0       	ldi	r22, 0x0B	; 11
    161c:	81 e0       	ldi	r24, 0x01	; 1
    161e:	0e 94 05 05 	call	0xa0a	; 0xa0a <printInt>
    1622:	40 91 b7 02 	lds	r20, 0x02B7
    1626:	6f e0       	ldi	r22, 0x0F	; 15
    1628:	81 e0       	ldi	r24, 0x01	; 1
    162a:	0e 94 05 05 	call	0xa0a	; 0xa0a <printInt>
    162e:	ff cf       	rjmp	.-2      	; 0x162e <main+0x50>

00001630 <__udivmodqi4>:
    1630:	99 1b       	sub	r25, r25
    1632:	79 e0       	ldi	r23, 0x09	; 9
    1634:	04 c0       	rjmp	.+8      	; 0x163e <__udivmodqi4_ep>

00001636 <__udivmodqi4_loop>:
    1636:	99 1f       	adc	r25, r25
    1638:	96 17       	cp	r25, r22
    163a:	08 f0       	brcs	.+2      	; 0x163e <__udivmodqi4_ep>
    163c:	96 1b       	sub	r25, r22

0000163e <__udivmodqi4_ep>:
    163e:	88 1f       	adc	r24, r24
    1640:	7a 95       	dec	r23
    1642:	c9 f7       	brne	.-14     	; 0x1636 <__udivmodqi4_loop>
    1644:	80 95       	com	r24
    1646:	08 95       	ret

00001648 <__udivmodhi4>:
    1648:	aa 1b       	sub	r26, r26
    164a:	bb 1b       	sub	r27, r27
    164c:	51 e1       	ldi	r21, 0x11	; 17
    164e:	07 c0       	rjmp	.+14     	; 0x165e <__udivmodhi4_ep>

00001650 <__udivmodhi4_loop>:
    1650:	aa 1f       	adc	r26, r26
    1652:	bb 1f       	adc	r27, r27
    1654:	a6 17       	cp	r26, r22
    1656:	b7 07       	cpc	r27, r23
    1658:	10 f0       	brcs	.+4      	; 0x165e <__udivmodhi4_ep>
    165a:	a6 1b       	sub	r26, r22
    165c:	b7 0b       	sbc	r27, r23

0000165e <__udivmodhi4_ep>:
    165e:	88 1f       	adc	r24, r24
    1660:	99 1f       	adc	r25, r25
    1662:	5a 95       	dec	r21
    1664:	a9 f7       	brne	.-22     	; 0x1650 <__udivmodhi4_loop>
    1666:	80 95       	com	r24
    1668:	90 95       	com	r25
    166a:	bc 01       	movw	r22, r24
    166c:	cd 01       	movw	r24, r26
    166e:	08 95       	ret

00001670 <__divmodhi4>:
    1670:	97 fb       	bst	r25, 7
    1672:	07 2e       	mov	r0, r23
    1674:	16 f4       	brtc	.+4      	; 0x167a <__divmodhi4+0xa>
    1676:	00 94       	com	r0
    1678:	07 d0       	rcall	.+14     	; 0x1688 <__divmodhi4_neg1>
    167a:	77 fd       	sbrc	r23, 7
    167c:	09 d0       	rcall	.+18     	; 0x1690 <__divmodhi4_neg2>
    167e:	0e 94 24 0b 	call	0x1648	; 0x1648 <__udivmodhi4>
    1682:	07 fc       	sbrc	r0, 7
    1684:	05 d0       	rcall	.+10     	; 0x1690 <__divmodhi4_neg2>
    1686:	3e f4       	brtc	.+14     	; 0x1696 <__divmodhi4_exit>

00001688 <__divmodhi4_neg1>:
    1688:	90 95       	com	r25
    168a:	81 95       	neg	r24
    168c:	9f 4f       	sbci	r25, 0xFF	; 255
    168e:	08 95       	ret

00001690 <__divmodhi4_neg2>:
    1690:	70 95       	com	r23
    1692:	61 95       	neg	r22
    1694:	7f 4f       	sbci	r23, 0xFF	; 255

00001696 <__divmodhi4_exit>:
    1696:	08 95       	ret

00001698 <__divsf3>:
    1698:	0c d0       	rcall	.+24     	; 0x16b2 <__divsf3x>
    169a:	eb c0       	rjmp	.+470    	; 0x1872 <__fp_round>
    169c:	e3 d0       	rcall	.+454    	; 0x1864 <__fp_pscB>
    169e:	40 f0       	brcs	.+16     	; 0x16b0 <__divsf3+0x18>
    16a0:	da d0       	rcall	.+436    	; 0x1856 <__fp_pscA>
    16a2:	30 f0       	brcs	.+12     	; 0x16b0 <__divsf3+0x18>
    16a4:	21 f4       	brne	.+8      	; 0x16ae <__divsf3+0x16>
    16a6:	5f 3f       	cpi	r21, 0xFF	; 255
    16a8:	19 f0       	breq	.+6      	; 0x16b0 <__divsf3+0x18>
    16aa:	cc c0       	rjmp	.+408    	; 0x1844 <__fp_inf>
    16ac:	51 11       	cpse	r21, r1
    16ae:	15 c1       	rjmp	.+554    	; 0x18da <__fp_szero>
    16b0:	cf c0       	rjmp	.+414    	; 0x1850 <__fp_nan>

000016b2 <__divsf3x>:
    16b2:	f0 d0       	rcall	.+480    	; 0x1894 <__fp_split3>
    16b4:	98 f3       	brcs	.-26     	; 0x169c <__divsf3+0x4>

000016b6 <__divsf3_pse>:
    16b6:	99 23       	and	r25, r25
    16b8:	c9 f3       	breq	.-14     	; 0x16ac <__divsf3+0x14>
    16ba:	55 23       	and	r21, r21
    16bc:	b1 f3       	breq	.-20     	; 0x16aa <__divsf3+0x12>
    16be:	95 1b       	sub	r25, r21
    16c0:	55 0b       	sbc	r21, r21
    16c2:	bb 27       	eor	r27, r27
    16c4:	aa 27       	eor	r26, r26
    16c6:	62 17       	cp	r22, r18
    16c8:	73 07       	cpc	r23, r19
    16ca:	84 07       	cpc	r24, r20
    16cc:	38 f0       	brcs	.+14     	; 0x16dc <__divsf3_pse+0x26>
    16ce:	9f 5f       	subi	r25, 0xFF	; 255
    16d0:	5f 4f       	sbci	r21, 0xFF	; 255
    16d2:	22 0f       	add	r18, r18
    16d4:	33 1f       	adc	r19, r19
    16d6:	44 1f       	adc	r20, r20
    16d8:	aa 1f       	adc	r26, r26
    16da:	a9 f3       	breq	.-22     	; 0x16c6 <__divsf3_pse+0x10>
    16dc:	33 d0       	rcall	.+102    	; 0x1744 <__divsf3_pse+0x8e>
    16de:	0e 2e       	mov	r0, r30
    16e0:	3a f0       	brmi	.+14     	; 0x16f0 <__divsf3_pse+0x3a>
    16e2:	e0 e8       	ldi	r30, 0x80	; 128
    16e4:	30 d0       	rcall	.+96     	; 0x1746 <__divsf3_pse+0x90>
    16e6:	91 50       	subi	r25, 0x01	; 1
    16e8:	50 40       	sbci	r21, 0x00	; 0
    16ea:	e6 95       	lsr	r30
    16ec:	00 1c       	adc	r0, r0
    16ee:	ca f7       	brpl	.-14     	; 0x16e2 <__divsf3_pse+0x2c>
    16f0:	29 d0       	rcall	.+82     	; 0x1744 <__divsf3_pse+0x8e>
    16f2:	fe 2f       	mov	r31, r30
    16f4:	27 d0       	rcall	.+78     	; 0x1744 <__divsf3_pse+0x8e>
    16f6:	66 0f       	add	r22, r22
    16f8:	77 1f       	adc	r23, r23
    16fa:	88 1f       	adc	r24, r24
    16fc:	bb 1f       	adc	r27, r27
    16fe:	26 17       	cp	r18, r22
    1700:	37 07       	cpc	r19, r23
    1702:	48 07       	cpc	r20, r24
    1704:	ab 07       	cpc	r26, r27
    1706:	b0 e8       	ldi	r27, 0x80	; 128
    1708:	09 f0       	breq	.+2      	; 0x170c <__divsf3_pse+0x56>
    170a:	bb 0b       	sbc	r27, r27
    170c:	80 2d       	mov	r24, r0
    170e:	bf 01       	movw	r22, r30
    1710:	ff 27       	eor	r31, r31
    1712:	93 58       	subi	r25, 0x83	; 131
    1714:	5f 4f       	sbci	r21, 0xFF	; 255
    1716:	2a f0       	brmi	.+10     	; 0x1722 <__divsf3_pse+0x6c>
    1718:	9e 3f       	cpi	r25, 0xFE	; 254
    171a:	51 05       	cpc	r21, r1
    171c:	68 f0       	brcs	.+26     	; 0x1738 <__divsf3_pse+0x82>
    171e:	92 c0       	rjmp	.+292    	; 0x1844 <__fp_inf>
    1720:	dc c0       	rjmp	.+440    	; 0x18da <__fp_szero>
    1722:	5f 3f       	cpi	r21, 0xFF	; 255
    1724:	ec f3       	brlt	.-6      	; 0x1720 <__divsf3_pse+0x6a>
    1726:	98 3e       	cpi	r25, 0xE8	; 232
    1728:	dc f3       	brlt	.-10     	; 0x1720 <__divsf3_pse+0x6a>
    172a:	86 95       	lsr	r24
    172c:	77 95       	ror	r23
    172e:	67 95       	ror	r22
    1730:	b7 95       	ror	r27
    1732:	f7 95       	ror	r31
    1734:	9f 5f       	subi	r25, 0xFF	; 255
    1736:	c9 f7       	brne	.-14     	; 0x172a <__divsf3_pse+0x74>
    1738:	88 0f       	add	r24, r24
    173a:	91 1d       	adc	r25, r1
    173c:	96 95       	lsr	r25
    173e:	87 95       	ror	r24
    1740:	97 f9       	bld	r25, 7
    1742:	08 95       	ret
    1744:	e1 e0       	ldi	r30, 0x01	; 1
    1746:	66 0f       	add	r22, r22
    1748:	77 1f       	adc	r23, r23
    174a:	88 1f       	adc	r24, r24
    174c:	bb 1f       	adc	r27, r27
    174e:	62 17       	cp	r22, r18
    1750:	73 07       	cpc	r23, r19
    1752:	84 07       	cpc	r24, r20
    1754:	ba 07       	cpc	r27, r26
    1756:	20 f0       	brcs	.+8      	; 0x1760 <__divsf3_pse+0xaa>
    1758:	62 1b       	sub	r22, r18
    175a:	73 0b       	sbc	r23, r19
    175c:	84 0b       	sbc	r24, r20
    175e:	ba 0b       	sbc	r27, r26
    1760:	ee 1f       	adc	r30, r30
    1762:	88 f7       	brcc	.-30     	; 0x1746 <__divsf3_pse+0x90>
    1764:	e0 95       	com	r30
    1766:	08 95       	ret

00001768 <__fixsfsi>:
    1768:	04 d0       	rcall	.+8      	; 0x1772 <__fixunssfsi>
    176a:	68 94       	set
    176c:	b1 11       	cpse	r27, r1
    176e:	b5 c0       	rjmp	.+362    	; 0x18da <__fp_szero>
    1770:	08 95       	ret

00001772 <__fixunssfsi>:
    1772:	98 d0       	rcall	.+304    	; 0x18a4 <__fp_splitA>
    1774:	88 f0       	brcs	.+34     	; 0x1798 <__fixunssfsi+0x26>
    1776:	9f 57       	subi	r25, 0x7F	; 127
    1778:	90 f0       	brcs	.+36     	; 0x179e <__fixunssfsi+0x2c>
    177a:	b9 2f       	mov	r27, r25
    177c:	99 27       	eor	r25, r25
    177e:	b7 51       	subi	r27, 0x17	; 23
    1780:	a0 f0       	brcs	.+40     	; 0x17aa <__fixunssfsi+0x38>
    1782:	d1 f0       	breq	.+52     	; 0x17b8 <__fixunssfsi+0x46>
    1784:	66 0f       	add	r22, r22
    1786:	77 1f       	adc	r23, r23
    1788:	88 1f       	adc	r24, r24
    178a:	99 1f       	adc	r25, r25
    178c:	1a f0       	brmi	.+6      	; 0x1794 <__fixunssfsi+0x22>
    178e:	ba 95       	dec	r27
    1790:	c9 f7       	brne	.-14     	; 0x1784 <__fixunssfsi+0x12>
    1792:	12 c0       	rjmp	.+36     	; 0x17b8 <__fixunssfsi+0x46>
    1794:	b1 30       	cpi	r27, 0x01	; 1
    1796:	81 f0       	breq	.+32     	; 0x17b8 <__fixunssfsi+0x46>
    1798:	9f d0       	rcall	.+318    	; 0x18d8 <__fp_zero>
    179a:	b1 e0       	ldi	r27, 0x01	; 1
    179c:	08 95       	ret
    179e:	9c c0       	rjmp	.+312    	; 0x18d8 <__fp_zero>
    17a0:	67 2f       	mov	r22, r23
    17a2:	78 2f       	mov	r23, r24
    17a4:	88 27       	eor	r24, r24
    17a6:	b8 5f       	subi	r27, 0xF8	; 248
    17a8:	39 f0       	breq	.+14     	; 0x17b8 <__fixunssfsi+0x46>
    17aa:	b9 3f       	cpi	r27, 0xF9	; 249
    17ac:	cc f3       	brlt	.-14     	; 0x17a0 <__fixunssfsi+0x2e>
    17ae:	86 95       	lsr	r24
    17b0:	77 95       	ror	r23
    17b2:	67 95       	ror	r22
    17b4:	b3 95       	inc	r27
    17b6:	d9 f7       	brne	.-10     	; 0x17ae <__fixunssfsi+0x3c>
    17b8:	3e f4       	brtc	.+14     	; 0x17c8 <__fixunssfsi+0x56>
    17ba:	90 95       	com	r25
    17bc:	80 95       	com	r24
    17be:	70 95       	com	r23
    17c0:	61 95       	neg	r22
    17c2:	7f 4f       	sbci	r23, 0xFF	; 255
    17c4:	8f 4f       	sbci	r24, 0xFF	; 255
    17c6:	9f 4f       	sbci	r25, 0xFF	; 255
    17c8:	08 95       	ret

000017ca <__floatunsisf>:
    17ca:	e8 94       	clt
    17cc:	09 c0       	rjmp	.+18     	; 0x17e0 <__floatsisf+0x12>

000017ce <__floatsisf>:
    17ce:	97 fb       	bst	r25, 7
    17d0:	3e f4       	brtc	.+14     	; 0x17e0 <__floatsisf+0x12>
    17d2:	90 95       	com	r25
    17d4:	80 95       	com	r24
    17d6:	70 95       	com	r23
    17d8:	61 95       	neg	r22
    17da:	7f 4f       	sbci	r23, 0xFF	; 255
    17dc:	8f 4f       	sbci	r24, 0xFF	; 255
    17de:	9f 4f       	sbci	r25, 0xFF	; 255
    17e0:	99 23       	and	r25, r25
    17e2:	a9 f0       	breq	.+42     	; 0x180e <__floatsisf+0x40>
    17e4:	f9 2f       	mov	r31, r25
    17e6:	96 e9       	ldi	r25, 0x96	; 150
    17e8:	bb 27       	eor	r27, r27
    17ea:	93 95       	inc	r25
    17ec:	f6 95       	lsr	r31
    17ee:	87 95       	ror	r24
    17f0:	77 95       	ror	r23
    17f2:	67 95       	ror	r22
    17f4:	b7 95       	ror	r27
    17f6:	f1 11       	cpse	r31, r1
    17f8:	f8 cf       	rjmp	.-16     	; 0x17ea <__floatsisf+0x1c>
    17fa:	fa f4       	brpl	.+62     	; 0x183a <__floatsisf+0x6c>
    17fc:	bb 0f       	add	r27, r27
    17fe:	11 f4       	brne	.+4      	; 0x1804 <__floatsisf+0x36>
    1800:	60 ff       	sbrs	r22, 0
    1802:	1b c0       	rjmp	.+54     	; 0x183a <__floatsisf+0x6c>
    1804:	6f 5f       	subi	r22, 0xFF	; 255
    1806:	7f 4f       	sbci	r23, 0xFF	; 255
    1808:	8f 4f       	sbci	r24, 0xFF	; 255
    180a:	9f 4f       	sbci	r25, 0xFF	; 255
    180c:	16 c0       	rjmp	.+44     	; 0x183a <__floatsisf+0x6c>
    180e:	88 23       	and	r24, r24
    1810:	11 f0       	breq	.+4      	; 0x1816 <__floatsisf+0x48>
    1812:	96 e9       	ldi	r25, 0x96	; 150
    1814:	11 c0       	rjmp	.+34     	; 0x1838 <__floatsisf+0x6a>
    1816:	77 23       	and	r23, r23
    1818:	21 f0       	breq	.+8      	; 0x1822 <__floatsisf+0x54>
    181a:	9e e8       	ldi	r25, 0x8E	; 142
    181c:	87 2f       	mov	r24, r23
    181e:	76 2f       	mov	r23, r22
    1820:	05 c0       	rjmp	.+10     	; 0x182c <__floatsisf+0x5e>
    1822:	66 23       	and	r22, r22
    1824:	71 f0       	breq	.+28     	; 0x1842 <__floatsisf+0x74>
    1826:	96 e8       	ldi	r25, 0x86	; 134
    1828:	86 2f       	mov	r24, r22
    182a:	70 e0       	ldi	r23, 0x00	; 0
    182c:	60 e0       	ldi	r22, 0x00	; 0
    182e:	2a f0       	brmi	.+10     	; 0x183a <__floatsisf+0x6c>
    1830:	9a 95       	dec	r25
    1832:	66 0f       	add	r22, r22
    1834:	77 1f       	adc	r23, r23
    1836:	88 1f       	adc	r24, r24
    1838:	da f7       	brpl	.-10     	; 0x1830 <__floatsisf+0x62>
    183a:	88 0f       	add	r24, r24
    183c:	96 95       	lsr	r25
    183e:	87 95       	ror	r24
    1840:	97 f9       	bld	r25, 7
    1842:	08 95       	ret

00001844 <__fp_inf>:
    1844:	97 f9       	bld	r25, 7
    1846:	9f 67       	ori	r25, 0x7F	; 127
    1848:	80 e8       	ldi	r24, 0x80	; 128
    184a:	70 e0       	ldi	r23, 0x00	; 0
    184c:	60 e0       	ldi	r22, 0x00	; 0
    184e:	08 95       	ret

00001850 <__fp_nan>:
    1850:	9f ef       	ldi	r25, 0xFF	; 255
    1852:	80 ec       	ldi	r24, 0xC0	; 192
    1854:	08 95       	ret

00001856 <__fp_pscA>:
    1856:	00 24       	eor	r0, r0
    1858:	0a 94       	dec	r0
    185a:	16 16       	cp	r1, r22
    185c:	17 06       	cpc	r1, r23
    185e:	18 06       	cpc	r1, r24
    1860:	09 06       	cpc	r0, r25
    1862:	08 95       	ret

00001864 <__fp_pscB>:
    1864:	00 24       	eor	r0, r0
    1866:	0a 94       	dec	r0
    1868:	12 16       	cp	r1, r18
    186a:	13 06       	cpc	r1, r19
    186c:	14 06       	cpc	r1, r20
    186e:	05 06       	cpc	r0, r21
    1870:	08 95       	ret

00001872 <__fp_round>:
    1872:	09 2e       	mov	r0, r25
    1874:	03 94       	inc	r0
    1876:	00 0c       	add	r0, r0
    1878:	11 f4       	brne	.+4      	; 0x187e <__fp_round+0xc>
    187a:	88 23       	and	r24, r24
    187c:	52 f0       	brmi	.+20     	; 0x1892 <__fp_round+0x20>
    187e:	bb 0f       	add	r27, r27
    1880:	40 f4       	brcc	.+16     	; 0x1892 <__fp_round+0x20>
    1882:	bf 2b       	or	r27, r31
    1884:	11 f4       	brne	.+4      	; 0x188a <__fp_round+0x18>
    1886:	60 ff       	sbrs	r22, 0
    1888:	04 c0       	rjmp	.+8      	; 0x1892 <__fp_round+0x20>
    188a:	6f 5f       	subi	r22, 0xFF	; 255
    188c:	7f 4f       	sbci	r23, 0xFF	; 255
    188e:	8f 4f       	sbci	r24, 0xFF	; 255
    1890:	9f 4f       	sbci	r25, 0xFF	; 255
    1892:	08 95       	ret

00001894 <__fp_split3>:
    1894:	57 fd       	sbrc	r21, 7
    1896:	90 58       	subi	r25, 0x80	; 128
    1898:	44 0f       	add	r20, r20
    189a:	55 1f       	adc	r21, r21
    189c:	59 f0       	breq	.+22     	; 0x18b4 <__fp_splitA+0x10>
    189e:	5f 3f       	cpi	r21, 0xFF	; 255
    18a0:	71 f0       	breq	.+28     	; 0x18be <__fp_splitA+0x1a>
    18a2:	47 95       	ror	r20

000018a4 <__fp_splitA>:
    18a4:	88 0f       	add	r24, r24
    18a6:	97 fb       	bst	r25, 7
    18a8:	99 1f       	adc	r25, r25
    18aa:	61 f0       	breq	.+24     	; 0x18c4 <__fp_splitA+0x20>
    18ac:	9f 3f       	cpi	r25, 0xFF	; 255
    18ae:	79 f0       	breq	.+30     	; 0x18ce <__fp_splitA+0x2a>
    18b0:	87 95       	ror	r24
    18b2:	08 95       	ret
    18b4:	12 16       	cp	r1, r18
    18b6:	13 06       	cpc	r1, r19
    18b8:	14 06       	cpc	r1, r20
    18ba:	55 1f       	adc	r21, r21
    18bc:	f2 cf       	rjmp	.-28     	; 0x18a2 <__fp_split3+0xe>
    18be:	46 95       	lsr	r20
    18c0:	f1 df       	rcall	.-30     	; 0x18a4 <__fp_splitA>
    18c2:	08 c0       	rjmp	.+16     	; 0x18d4 <__fp_splitA+0x30>
    18c4:	16 16       	cp	r1, r22
    18c6:	17 06       	cpc	r1, r23
    18c8:	18 06       	cpc	r1, r24
    18ca:	99 1f       	adc	r25, r25
    18cc:	f1 cf       	rjmp	.-30     	; 0x18b0 <__fp_splitA+0xc>
    18ce:	86 95       	lsr	r24
    18d0:	71 05       	cpc	r23, r1
    18d2:	61 05       	cpc	r22, r1
    18d4:	08 94       	sec
    18d6:	08 95       	ret

000018d8 <__fp_zero>:
    18d8:	e8 94       	clt

000018da <__fp_szero>:
    18da:	bb 27       	eor	r27, r27
    18dc:	66 27       	eor	r22, r22
    18de:	77 27       	eor	r23, r23
    18e0:	cb 01       	movw	r24, r22
    18e2:	97 f9       	bld	r25, 7
    18e4:	08 95       	ret

000018e6 <__itoa_ncheck>:
    18e6:	bb 27       	eor	r27, r27
    18e8:	4a 30       	cpi	r20, 0x0A	; 10
    18ea:	31 f4       	brne	.+12     	; 0x18f8 <__itoa_ncheck+0x12>
    18ec:	99 23       	and	r25, r25
    18ee:	22 f4       	brpl	.+8      	; 0x18f8 <__itoa_ncheck+0x12>
    18f0:	bd e2       	ldi	r27, 0x2D	; 45
    18f2:	90 95       	com	r25
    18f4:	81 95       	neg	r24
    18f6:	9f 4f       	sbci	r25, 0xFF	; 255
    18f8:	0c 94 b0 0c 	jmp	0x1960	; 0x1960 <__utoa_common>

000018fc <__ltoa_ncheck>:
    18fc:	bb 27       	eor	r27, r27
    18fe:	2a 30       	cpi	r18, 0x0A	; 10
    1900:	51 f4       	brne	.+20     	; 0x1916 <__ltoa_ncheck+0x1a>
    1902:	99 23       	and	r25, r25
    1904:	42 f4       	brpl	.+16     	; 0x1916 <__ltoa_ncheck+0x1a>
    1906:	bd e2       	ldi	r27, 0x2D	; 45
    1908:	90 95       	com	r25
    190a:	80 95       	com	r24
    190c:	70 95       	com	r23
    190e:	61 95       	neg	r22
    1910:	7f 4f       	sbci	r23, 0xFF	; 255
    1912:	8f 4f       	sbci	r24, 0xFF	; 255
    1914:	9f 4f       	sbci	r25, 0xFF	; 255
    1916:	0c 94 8e 0c 	jmp	0x191c	; 0x191c <__ultoa_common>

0000191a <__ultoa_ncheck>:
    191a:	bb 27       	eor	r27, r27

0000191c <__ultoa_common>:
    191c:	fa 01       	movw	r30, r20
    191e:	a6 2f       	mov	r26, r22
    1920:	62 17       	cp	r22, r18
    1922:	71 05       	cpc	r23, r1
    1924:	81 05       	cpc	r24, r1
    1926:	91 05       	cpc	r25, r1
    1928:	33 0b       	sbc	r19, r19
    192a:	30 fb       	bst	r19, 0
    192c:	66 f0       	brts	.+24     	; 0x1946 <__ultoa_common+0x2a>
    192e:	aa 27       	eor	r26, r26
    1930:	66 0f       	add	r22, r22
    1932:	77 1f       	adc	r23, r23
    1934:	88 1f       	adc	r24, r24
    1936:	99 1f       	adc	r25, r25
    1938:	aa 1f       	adc	r26, r26
    193a:	a2 17       	cp	r26, r18
    193c:	10 f0       	brcs	.+4      	; 0x1942 <__ultoa_common+0x26>
    193e:	a2 1b       	sub	r26, r18
    1940:	63 95       	inc	r22
    1942:	38 50       	subi	r19, 0x08	; 8
    1944:	a9 f7       	brne	.-22     	; 0x1930 <__ultoa_common+0x14>
    1946:	a0 5d       	subi	r26, 0xD0	; 208
    1948:	aa 33       	cpi	r26, 0x3A	; 58
    194a:	08 f0       	brcs	.+2      	; 0x194e <__ultoa_common+0x32>
    194c:	a9 5d       	subi	r26, 0xD9	; 217
    194e:	a1 93       	st	Z+, r26
    1950:	36 f7       	brtc	.-52     	; 0x191e <__ultoa_common+0x2>
    1952:	b1 11       	cpse	r27, r1
    1954:	b1 93       	st	Z+, r27
    1956:	10 82       	st	Z, r1
    1958:	ca 01       	movw	r24, r20
    195a:	0c 94 0c 0f 	jmp	0x1e18	; 0x1e18 <strrev>

0000195e <__utoa_ncheck>:
    195e:	bb 27       	eor	r27, r27

00001960 <__utoa_common>:
    1960:	fb 01       	movw	r30, r22
    1962:	55 27       	eor	r21, r21
    1964:	aa 27       	eor	r26, r26
    1966:	88 0f       	add	r24, r24
    1968:	99 1f       	adc	r25, r25
    196a:	aa 1f       	adc	r26, r26
    196c:	a4 17       	cp	r26, r20
    196e:	10 f0       	brcs	.+4      	; 0x1974 <__utoa_common+0x14>
    1970:	a4 1b       	sub	r26, r20
    1972:	83 95       	inc	r24
    1974:	50 51       	subi	r21, 0x10	; 16
    1976:	b9 f7       	brne	.-18     	; 0x1966 <__utoa_common+0x6>
    1978:	a0 5d       	subi	r26, 0xD0	; 208
    197a:	aa 33       	cpi	r26, 0x3A	; 58
    197c:	08 f0       	brcs	.+2      	; 0x1980 <__utoa_common+0x20>
    197e:	a9 5d       	subi	r26, 0xD9	; 217
    1980:	a1 93       	st	Z+, r26
    1982:	00 97       	sbiw	r24, 0x00	; 0
    1984:	79 f7       	brne	.-34     	; 0x1964 <__utoa_common+0x4>
    1986:	b1 11       	cpse	r27, r1
    1988:	b1 93       	st	Z+, r27
    198a:	11 92       	st	Z+, r1
    198c:	cb 01       	movw	r24, r22
    198e:	0c 94 0c 0f 	jmp	0x1e18	; 0x1e18 <strrev>

00001992 <sprintf>:
    1992:	ae e0       	ldi	r26, 0x0E	; 14
    1994:	b0 e0       	ldi	r27, 0x00	; 0
    1996:	ef ec       	ldi	r30, 0xCF	; 207
    1998:	fc e0       	ldi	r31, 0x0C	; 12
    199a:	0c 94 ba 0f 	jmp	0x1f74	; 0x1f74 <__prologue_saves__+0x1c>
    199e:	0d 89       	ldd	r16, Y+21	; 0x15
    19a0:	1e 89       	ldd	r17, Y+22	; 0x16
    19a2:	86 e0       	ldi	r24, 0x06	; 6
    19a4:	8c 83       	std	Y+4, r24	; 0x04
    19a6:	1a 83       	std	Y+2, r17	; 0x02
    19a8:	09 83       	std	Y+1, r16	; 0x01
    19aa:	8f ef       	ldi	r24, 0xFF	; 255
    19ac:	9f e7       	ldi	r25, 0x7F	; 127
    19ae:	9e 83       	std	Y+6, r25	; 0x06
    19b0:	8d 83       	std	Y+5, r24	; 0x05
    19b2:	ae 01       	movw	r20, r28
    19b4:	47 5e       	subi	r20, 0xE7	; 231
    19b6:	5f 4f       	sbci	r21, 0xFF	; 255
    19b8:	6f 89       	ldd	r22, Y+23	; 0x17
    19ba:	78 8d       	ldd	r23, Y+24	; 0x18
    19bc:	ce 01       	movw	r24, r28
    19be:	01 96       	adiw	r24, 0x01	; 1
    19c0:	0e 94 eb 0c 	call	0x19d6	; 0x19d6 <vfprintf>
    19c4:	ef 81       	ldd	r30, Y+7	; 0x07
    19c6:	f8 85       	ldd	r31, Y+8	; 0x08
    19c8:	e0 0f       	add	r30, r16
    19ca:	f1 1f       	adc	r31, r17
    19cc:	10 82       	st	Z, r1
    19ce:	2e 96       	adiw	r28, 0x0e	; 14
    19d0:	e4 e0       	ldi	r30, 0x04	; 4
    19d2:	0c 94 d6 0f 	jmp	0x1fac	; 0x1fac <__epilogue_restores__+0x1c>

000019d6 <vfprintf>:
    19d6:	ac e0       	ldi	r26, 0x0C	; 12
    19d8:	b0 e0       	ldi	r27, 0x00	; 0
    19da:	e1 ef       	ldi	r30, 0xF1	; 241
    19dc:	fc e0       	ldi	r31, 0x0C	; 12
    19de:	0c 94 ac 0f 	jmp	0x1f58	; 0x1f58 <__prologue_saves__>
    19e2:	7c 01       	movw	r14, r24
    19e4:	6b 01       	movw	r12, r22
    19e6:	8a 01       	movw	r16, r20
    19e8:	fc 01       	movw	r30, r24
    19ea:	17 82       	std	Z+7, r1	; 0x07
    19ec:	16 82       	std	Z+6, r1	; 0x06
    19ee:	83 81       	ldd	r24, Z+3	; 0x03
    19f0:	81 ff       	sbrs	r24, 1
    19f2:	bd c1       	rjmp	.+890    	; 0x1d6e <vfprintf+0x398>
    19f4:	ce 01       	movw	r24, r28
    19f6:	01 96       	adiw	r24, 0x01	; 1
    19f8:	4c 01       	movw	r8, r24
    19fa:	f7 01       	movw	r30, r14
    19fc:	93 81       	ldd	r25, Z+3	; 0x03
    19fe:	f6 01       	movw	r30, r12
    1a00:	93 fd       	sbrc	r25, 3
    1a02:	85 91       	lpm	r24, Z+
    1a04:	93 ff       	sbrs	r25, 3
    1a06:	81 91       	ld	r24, Z+
    1a08:	6f 01       	movw	r12, r30
    1a0a:	88 23       	and	r24, r24
    1a0c:	09 f4       	brne	.+2      	; 0x1a10 <vfprintf+0x3a>
    1a0e:	ab c1       	rjmp	.+854    	; 0x1d66 <vfprintf+0x390>
    1a10:	85 32       	cpi	r24, 0x25	; 37
    1a12:	39 f4       	brne	.+14     	; 0x1a22 <vfprintf+0x4c>
    1a14:	93 fd       	sbrc	r25, 3
    1a16:	85 91       	lpm	r24, Z+
    1a18:	93 ff       	sbrs	r25, 3
    1a1a:	81 91       	ld	r24, Z+
    1a1c:	6f 01       	movw	r12, r30
    1a1e:	85 32       	cpi	r24, 0x25	; 37
    1a20:	29 f4       	brne	.+10     	; 0x1a2c <vfprintf+0x56>
    1a22:	b7 01       	movw	r22, r14
    1a24:	90 e0       	ldi	r25, 0x00	; 0
    1a26:	0e 94 1c 0f 	call	0x1e38	; 0x1e38 <fputc>
    1a2a:	e7 cf       	rjmp	.-50     	; 0x19fa <vfprintf+0x24>
    1a2c:	51 2c       	mov	r5, r1
    1a2e:	31 2c       	mov	r3, r1
    1a30:	20 e0       	ldi	r18, 0x00	; 0
    1a32:	20 32       	cpi	r18, 0x20	; 32
    1a34:	a0 f4       	brcc	.+40     	; 0x1a5e <vfprintf+0x88>
    1a36:	8b 32       	cpi	r24, 0x2B	; 43
    1a38:	69 f0       	breq	.+26     	; 0x1a54 <vfprintf+0x7e>
    1a3a:	30 f4       	brcc	.+12     	; 0x1a48 <vfprintf+0x72>
    1a3c:	80 32       	cpi	r24, 0x20	; 32
    1a3e:	59 f0       	breq	.+22     	; 0x1a56 <vfprintf+0x80>
    1a40:	83 32       	cpi	r24, 0x23	; 35
    1a42:	69 f4       	brne	.+26     	; 0x1a5e <vfprintf+0x88>
    1a44:	20 61       	ori	r18, 0x10	; 16
    1a46:	2c c0       	rjmp	.+88     	; 0x1aa0 <vfprintf+0xca>
    1a48:	8d 32       	cpi	r24, 0x2D	; 45
    1a4a:	39 f0       	breq	.+14     	; 0x1a5a <vfprintf+0x84>
    1a4c:	80 33       	cpi	r24, 0x30	; 48
    1a4e:	39 f4       	brne	.+14     	; 0x1a5e <vfprintf+0x88>
    1a50:	21 60       	ori	r18, 0x01	; 1
    1a52:	26 c0       	rjmp	.+76     	; 0x1aa0 <vfprintf+0xca>
    1a54:	22 60       	ori	r18, 0x02	; 2
    1a56:	24 60       	ori	r18, 0x04	; 4
    1a58:	23 c0       	rjmp	.+70     	; 0x1aa0 <vfprintf+0xca>
    1a5a:	28 60       	ori	r18, 0x08	; 8
    1a5c:	21 c0       	rjmp	.+66     	; 0x1aa0 <vfprintf+0xca>
    1a5e:	27 fd       	sbrc	r18, 7
    1a60:	27 c0       	rjmp	.+78     	; 0x1ab0 <vfprintf+0xda>
    1a62:	30 ed       	ldi	r19, 0xD0	; 208
    1a64:	38 0f       	add	r19, r24
    1a66:	3a 30       	cpi	r19, 0x0A	; 10
    1a68:	78 f4       	brcc	.+30     	; 0x1a88 <vfprintf+0xb2>
    1a6a:	26 ff       	sbrs	r18, 6
    1a6c:	06 c0       	rjmp	.+12     	; 0x1a7a <vfprintf+0xa4>
    1a6e:	fa e0       	ldi	r31, 0x0A	; 10
    1a70:	5f 9e       	mul	r5, r31
    1a72:	30 0d       	add	r19, r0
    1a74:	11 24       	eor	r1, r1
    1a76:	53 2e       	mov	r5, r19
    1a78:	13 c0       	rjmp	.+38     	; 0x1aa0 <vfprintf+0xca>
    1a7a:	8a e0       	ldi	r24, 0x0A	; 10
    1a7c:	38 9e       	mul	r3, r24
    1a7e:	30 0d       	add	r19, r0
    1a80:	11 24       	eor	r1, r1
    1a82:	33 2e       	mov	r3, r19
    1a84:	20 62       	ori	r18, 0x20	; 32
    1a86:	0c c0       	rjmp	.+24     	; 0x1aa0 <vfprintf+0xca>
    1a88:	8e 32       	cpi	r24, 0x2E	; 46
    1a8a:	21 f4       	brne	.+8      	; 0x1a94 <vfprintf+0xbe>
    1a8c:	26 fd       	sbrc	r18, 6
    1a8e:	6b c1       	rjmp	.+726    	; 0x1d66 <vfprintf+0x390>
    1a90:	20 64       	ori	r18, 0x40	; 64
    1a92:	06 c0       	rjmp	.+12     	; 0x1aa0 <vfprintf+0xca>
    1a94:	8c 36       	cpi	r24, 0x6C	; 108
    1a96:	11 f4       	brne	.+4      	; 0x1a9c <vfprintf+0xc6>
    1a98:	20 68       	ori	r18, 0x80	; 128
    1a9a:	02 c0       	rjmp	.+4      	; 0x1aa0 <vfprintf+0xca>
    1a9c:	88 36       	cpi	r24, 0x68	; 104
    1a9e:	41 f4       	brne	.+16     	; 0x1ab0 <vfprintf+0xda>
    1aa0:	f6 01       	movw	r30, r12
    1aa2:	93 fd       	sbrc	r25, 3
    1aa4:	85 91       	lpm	r24, Z+
    1aa6:	93 ff       	sbrs	r25, 3
    1aa8:	81 91       	ld	r24, Z+
    1aaa:	6f 01       	movw	r12, r30
    1aac:	81 11       	cpse	r24, r1
    1aae:	c1 cf       	rjmp	.-126    	; 0x1a32 <vfprintf+0x5c>
    1ab0:	98 2f       	mov	r25, r24
    1ab2:	9f 7d       	andi	r25, 0xDF	; 223
    1ab4:	95 54       	subi	r25, 0x45	; 69
    1ab6:	93 30       	cpi	r25, 0x03	; 3
    1ab8:	28 f4       	brcc	.+10     	; 0x1ac4 <vfprintf+0xee>
    1aba:	0c 5f       	subi	r16, 0xFC	; 252
    1abc:	1f 4f       	sbci	r17, 0xFF	; 255
    1abe:	ff e3       	ldi	r31, 0x3F	; 63
    1ac0:	f9 83       	std	Y+1, r31	; 0x01
    1ac2:	0d c0       	rjmp	.+26     	; 0x1ade <vfprintf+0x108>
    1ac4:	83 36       	cpi	r24, 0x63	; 99
    1ac6:	31 f0       	breq	.+12     	; 0x1ad4 <vfprintf+0xfe>
    1ac8:	83 37       	cpi	r24, 0x73	; 115
    1aca:	71 f0       	breq	.+28     	; 0x1ae8 <vfprintf+0x112>
    1acc:	83 35       	cpi	r24, 0x53	; 83
    1ace:	09 f0       	breq	.+2      	; 0x1ad2 <vfprintf+0xfc>
    1ad0:	5b c0       	rjmp	.+182    	; 0x1b88 <vfprintf+0x1b2>
    1ad2:	22 c0       	rjmp	.+68     	; 0x1b18 <vfprintf+0x142>
    1ad4:	f8 01       	movw	r30, r16
    1ad6:	80 81       	ld	r24, Z
    1ad8:	89 83       	std	Y+1, r24	; 0x01
    1ada:	0e 5f       	subi	r16, 0xFE	; 254
    1adc:	1f 4f       	sbci	r17, 0xFF	; 255
    1ade:	44 24       	eor	r4, r4
    1ae0:	43 94       	inc	r4
    1ae2:	51 2c       	mov	r5, r1
    1ae4:	54 01       	movw	r10, r8
    1ae6:	15 c0       	rjmp	.+42     	; 0x1b12 <vfprintf+0x13c>
    1ae8:	38 01       	movw	r6, r16
    1aea:	f2 e0       	ldi	r31, 0x02	; 2
    1aec:	6f 0e       	add	r6, r31
    1aee:	71 1c       	adc	r7, r1
    1af0:	f8 01       	movw	r30, r16
    1af2:	a0 80       	ld	r10, Z
    1af4:	b1 80       	ldd	r11, Z+1	; 0x01
    1af6:	26 ff       	sbrs	r18, 6
    1af8:	03 c0       	rjmp	.+6      	; 0x1b00 <vfprintf+0x12a>
    1afa:	65 2d       	mov	r22, r5
    1afc:	70 e0       	ldi	r23, 0x00	; 0
    1afe:	02 c0       	rjmp	.+4      	; 0x1b04 <vfprintf+0x12e>
    1b00:	6f ef       	ldi	r22, 0xFF	; 255
    1b02:	7f ef       	ldi	r23, 0xFF	; 255
    1b04:	c5 01       	movw	r24, r10
    1b06:	2c 87       	std	Y+12, r18	; 0x0c
    1b08:	0e 94 01 0f 	call	0x1e02	; 0x1e02 <strnlen>
    1b0c:	2c 01       	movw	r4, r24
    1b0e:	83 01       	movw	r16, r6
    1b10:	2c 85       	ldd	r18, Y+12	; 0x0c
    1b12:	2f 77       	andi	r18, 0x7F	; 127
    1b14:	22 2e       	mov	r2, r18
    1b16:	17 c0       	rjmp	.+46     	; 0x1b46 <vfprintf+0x170>
    1b18:	38 01       	movw	r6, r16
    1b1a:	f2 e0       	ldi	r31, 0x02	; 2
    1b1c:	6f 0e       	add	r6, r31
    1b1e:	71 1c       	adc	r7, r1
    1b20:	f8 01       	movw	r30, r16
    1b22:	a0 80       	ld	r10, Z
    1b24:	b1 80       	ldd	r11, Z+1	; 0x01
    1b26:	26 ff       	sbrs	r18, 6
    1b28:	03 c0       	rjmp	.+6      	; 0x1b30 <vfprintf+0x15a>
    1b2a:	65 2d       	mov	r22, r5
    1b2c:	70 e0       	ldi	r23, 0x00	; 0
    1b2e:	02 c0       	rjmp	.+4      	; 0x1b34 <vfprintf+0x15e>
    1b30:	6f ef       	ldi	r22, 0xFF	; 255
    1b32:	7f ef       	ldi	r23, 0xFF	; 255
    1b34:	c5 01       	movw	r24, r10
    1b36:	2c 87       	std	Y+12, r18	; 0x0c
    1b38:	0e 94 f6 0e 	call	0x1dec	; 0x1dec <strnlen_P>
    1b3c:	2c 01       	movw	r4, r24
    1b3e:	2c 85       	ldd	r18, Y+12	; 0x0c
    1b40:	20 68       	ori	r18, 0x80	; 128
    1b42:	22 2e       	mov	r2, r18
    1b44:	83 01       	movw	r16, r6
    1b46:	23 fc       	sbrc	r2, 3
    1b48:	1b c0       	rjmp	.+54     	; 0x1b80 <vfprintf+0x1aa>
    1b4a:	83 2d       	mov	r24, r3
    1b4c:	90 e0       	ldi	r25, 0x00	; 0
    1b4e:	48 16       	cp	r4, r24
    1b50:	59 06       	cpc	r5, r25
    1b52:	b0 f4       	brcc	.+44     	; 0x1b80 <vfprintf+0x1aa>
    1b54:	b7 01       	movw	r22, r14
    1b56:	80 e2       	ldi	r24, 0x20	; 32
    1b58:	90 e0       	ldi	r25, 0x00	; 0
    1b5a:	0e 94 1c 0f 	call	0x1e38	; 0x1e38 <fputc>
    1b5e:	3a 94       	dec	r3
    1b60:	f4 cf       	rjmp	.-24     	; 0x1b4a <vfprintf+0x174>
    1b62:	f5 01       	movw	r30, r10
    1b64:	27 fc       	sbrc	r2, 7
    1b66:	85 91       	lpm	r24, Z+
    1b68:	27 fe       	sbrs	r2, 7
    1b6a:	81 91       	ld	r24, Z+
    1b6c:	5f 01       	movw	r10, r30
    1b6e:	b7 01       	movw	r22, r14
    1b70:	90 e0       	ldi	r25, 0x00	; 0
    1b72:	0e 94 1c 0f 	call	0x1e38	; 0x1e38 <fputc>
    1b76:	31 10       	cpse	r3, r1
    1b78:	3a 94       	dec	r3
    1b7a:	f1 e0       	ldi	r31, 0x01	; 1
    1b7c:	4f 1a       	sub	r4, r31
    1b7e:	51 08       	sbc	r5, r1
    1b80:	41 14       	cp	r4, r1
    1b82:	51 04       	cpc	r5, r1
    1b84:	71 f7       	brne	.-36     	; 0x1b62 <vfprintf+0x18c>
    1b86:	e5 c0       	rjmp	.+458    	; 0x1d52 <vfprintf+0x37c>
    1b88:	84 36       	cpi	r24, 0x64	; 100
    1b8a:	11 f0       	breq	.+4      	; 0x1b90 <vfprintf+0x1ba>
    1b8c:	89 36       	cpi	r24, 0x69	; 105
    1b8e:	39 f5       	brne	.+78     	; 0x1bde <vfprintf+0x208>
    1b90:	f8 01       	movw	r30, r16
    1b92:	27 ff       	sbrs	r18, 7
    1b94:	07 c0       	rjmp	.+14     	; 0x1ba4 <vfprintf+0x1ce>
    1b96:	60 81       	ld	r22, Z
    1b98:	71 81       	ldd	r23, Z+1	; 0x01
    1b9a:	82 81       	ldd	r24, Z+2	; 0x02
    1b9c:	93 81       	ldd	r25, Z+3	; 0x03
    1b9e:	0c 5f       	subi	r16, 0xFC	; 252
    1ba0:	1f 4f       	sbci	r17, 0xFF	; 255
    1ba2:	08 c0       	rjmp	.+16     	; 0x1bb4 <vfprintf+0x1de>
    1ba4:	60 81       	ld	r22, Z
    1ba6:	71 81       	ldd	r23, Z+1	; 0x01
    1ba8:	88 27       	eor	r24, r24
    1baa:	77 fd       	sbrc	r23, 7
    1bac:	80 95       	com	r24
    1bae:	98 2f       	mov	r25, r24
    1bb0:	0e 5f       	subi	r16, 0xFE	; 254
    1bb2:	1f 4f       	sbci	r17, 0xFF	; 255
    1bb4:	2f 76       	andi	r18, 0x6F	; 111
    1bb6:	b2 2e       	mov	r11, r18
    1bb8:	97 ff       	sbrs	r25, 7
    1bba:	09 c0       	rjmp	.+18     	; 0x1bce <vfprintf+0x1f8>
    1bbc:	90 95       	com	r25
    1bbe:	80 95       	com	r24
    1bc0:	70 95       	com	r23
    1bc2:	61 95       	neg	r22
    1bc4:	7f 4f       	sbci	r23, 0xFF	; 255
    1bc6:	8f 4f       	sbci	r24, 0xFF	; 255
    1bc8:	9f 4f       	sbci	r25, 0xFF	; 255
    1bca:	20 68       	ori	r18, 0x80	; 128
    1bcc:	b2 2e       	mov	r11, r18
    1bce:	2a e0       	ldi	r18, 0x0A	; 10
    1bd0:	30 e0       	ldi	r19, 0x00	; 0
    1bd2:	a4 01       	movw	r20, r8
    1bd4:	0e 94 4e 0f 	call	0x1e9c	; 0x1e9c <__ultoa_invert>
    1bd8:	a8 2e       	mov	r10, r24
    1bda:	a8 18       	sub	r10, r8
    1bdc:	44 c0       	rjmp	.+136    	; 0x1c66 <vfprintf+0x290>
    1bde:	85 37       	cpi	r24, 0x75	; 117
    1be0:	29 f4       	brne	.+10     	; 0x1bec <vfprintf+0x216>
    1be2:	2f 7e       	andi	r18, 0xEF	; 239
    1be4:	b2 2e       	mov	r11, r18
    1be6:	2a e0       	ldi	r18, 0x0A	; 10
    1be8:	30 e0       	ldi	r19, 0x00	; 0
    1bea:	25 c0       	rjmp	.+74     	; 0x1c36 <vfprintf+0x260>
    1bec:	f2 2f       	mov	r31, r18
    1bee:	f9 7f       	andi	r31, 0xF9	; 249
    1bf0:	bf 2e       	mov	r11, r31
    1bf2:	8f 36       	cpi	r24, 0x6F	; 111
    1bf4:	c1 f0       	breq	.+48     	; 0x1c26 <vfprintf+0x250>
    1bf6:	18 f4       	brcc	.+6      	; 0x1bfe <vfprintf+0x228>
    1bf8:	88 35       	cpi	r24, 0x58	; 88
    1bfa:	79 f0       	breq	.+30     	; 0x1c1a <vfprintf+0x244>
    1bfc:	b4 c0       	rjmp	.+360    	; 0x1d66 <vfprintf+0x390>
    1bfe:	80 37       	cpi	r24, 0x70	; 112
    1c00:	19 f0       	breq	.+6      	; 0x1c08 <vfprintf+0x232>
    1c02:	88 37       	cpi	r24, 0x78	; 120
    1c04:	21 f0       	breq	.+8      	; 0x1c0e <vfprintf+0x238>
    1c06:	af c0       	rjmp	.+350    	; 0x1d66 <vfprintf+0x390>
    1c08:	2f 2f       	mov	r18, r31
    1c0a:	20 61       	ori	r18, 0x10	; 16
    1c0c:	b2 2e       	mov	r11, r18
    1c0e:	b4 fe       	sbrs	r11, 4
    1c10:	0d c0       	rjmp	.+26     	; 0x1c2c <vfprintf+0x256>
    1c12:	8b 2d       	mov	r24, r11
    1c14:	84 60       	ori	r24, 0x04	; 4
    1c16:	b8 2e       	mov	r11, r24
    1c18:	09 c0       	rjmp	.+18     	; 0x1c2c <vfprintf+0x256>
    1c1a:	24 ff       	sbrs	r18, 4
    1c1c:	0a c0       	rjmp	.+20     	; 0x1c32 <vfprintf+0x25c>
    1c1e:	9f 2f       	mov	r25, r31
    1c20:	96 60       	ori	r25, 0x06	; 6
    1c22:	b9 2e       	mov	r11, r25
    1c24:	06 c0       	rjmp	.+12     	; 0x1c32 <vfprintf+0x25c>
    1c26:	28 e0       	ldi	r18, 0x08	; 8
    1c28:	30 e0       	ldi	r19, 0x00	; 0
    1c2a:	05 c0       	rjmp	.+10     	; 0x1c36 <vfprintf+0x260>
    1c2c:	20 e1       	ldi	r18, 0x10	; 16
    1c2e:	30 e0       	ldi	r19, 0x00	; 0
    1c30:	02 c0       	rjmp	.+4      	; 0x1c36 <vfprintf+0x260>
    1c32:	20 e1       	ldi	r18, 0x10	; 16
    1c34:	32 e0       	ldi	r19, 0x02	; 2
    1c36:	f8 01       	movw	r30, r16
    1c38:	b7 fe       	sbrs	r11, 7
    1c3a:	07 c0       	rjmp	.+14     	; 0x1c4a <vfprintf+0x274>
    1c3c:	60 81       	ld	r22, Z
    1c3e:	71 81       	ldd	r23, Z+1	; 0x01
    1c40:	82 81       	ldd	r24, Z+2	; 0x02
    1c42:	93 81       	ldd	r25, Z+3	; 0x03
    1c44:	0c 5f       	subi	r16, 0xFC	; 252
    1c46:	1f 4f       	sbci	r17, 0xFF	; 255
    1c48:	06 c0       	rjmp	.+12     	; 0x1c56 <vfprintf+0x280>
    1c4a:	60 81       	ld	r22, Z
    1c4c:	71 81       	ldd	r23, Z+1	; 0x01
    1c4e:	80 e0       	ldi	r24, 0x00	; 0
    1c50:	90 e0       	ldi	r25, 0x00	; 0
    1c52:	0e 5f       	subi	r16, 0xFE	; 254
    1c54:	1f 4f       	sbci	r17, 0xFF	; 255
    1c56:	a4 01       	movw	r20, r8
    1c58:	0e 94 4e 0f 	call	0x1e9c	; 0x1e9c <__ultoa_invert>
    1c5c:	a8 2e       	mov	r10, r24
    1c5e:	a8 18       	sub	r10, r8
    1c60:	fb 2d       	mov	r31, r11
    1c62:	ff 77       	andi	r31, 0x7F	; 127
    1c64:	bf 2e       	mov	r11, r31
    1c66:	b6 fe       	sbrs	r11, 6
    1c68:	0b c0       	rjmp	.+22     	; 0x1c80 <vfprintf+0x2aa>
    1c6a:	2b 2d       	mov	r18, r11
    1c6c:	2e 7f       	andi	r18, 0xFE	; 254
    1c6e:	a5 14       	cp	r10, r5
    1c70:	50 f4       	brcc	.+20     	; 0x1c86 <vfprintf+0x2b0>
    1c72:	b4 fe       	sbrs	r11, 4
    1c74:	0a c0       	rjmp	.+20     	; 0x1c8a <vfprintf+0x2b4>
    1c76:	b2 fc       	sbrc	r11, 2
    1c78:	08 c0       	rjmp	.+16     	; 0x1c8a <vfprintf+0x2b4>
    1c7a:	2b 2d       	mov	r18, r11
    1c7c:	2e 7e       	andi	r18, 0xEE	; 238
    1c7e:	05 c0       	rjmp	.+10     	; 0x1c8a <vfprintf+0x2b4>
    1c80:	7a 2c       	mov	r7, r10
    1c82:	2b 2d       	mov	r18, r11
    1c84:	03 c0       	rjmp	.+6      	; 0x1c8c <vfprintf+0x2b6>
    1c86:	7a 2c       	mov	r7, r10
    1c88:	01 c0       	rjmp	.+2      	; 0x1c8c <vfprintf+0x2b6>
    1c8a:	75 2c       	mov	r7, r5
    1c8c:	24 ff       	sbrs	r18, 4
    1c8e:	0d c0       	rjmp	.+26     	; 0x1caa <vfprintf+0x2d4>
    1c90:	fe 01       	movw	r30, r28
    1c92:	ea 0d       	add	r30, r10
    1c94:	f1 1d       	adc	r31, r1
    1c96:	80 81       	ld	r24, Z
    1c98:	80 33       	cpi	r24, 0x30	; 48
    1c9a:	11 f4       	brne	.+4      	; 0x1ca0 <vfprintf+0x2ca>
    1c9c:	29 7e       	andi	r18, 0xE9	; 233
    1c9e:	09 c0       	rjmp	.+18     	; 0x1cb2 <vfprintf+0x2dc>
    1ca0:	22 ff       	sbrs	r18, 2
    1ca2:	06 c0       	rjmp	.+12     	; 0x1cb0 <vfprintf+0x2da>
    1ca4:	73 94       	inc	r7
    1ca6:	73 94       	inc	r7
    1ca8:	04 c0       	rjmp	.+8      	; 0x1cb2 <vfprintf+0x2dc>
    1caa:	82 2f       	mov	r24, r18
    1cac:	86 78       	andi	r24, 0x86	; 134
    1cae:	09 f0       	breq	.+2      	; 0x1cb2 <vfprintf+0x2dc>
    1cb0:	73 94       	inc	r7
    1cb2:	23 fd       	sbrc	r18, 3
    1cb4:	13 c0       	rjmp	.+38     	; 0x1cdc <vfprintf+0x306>
    1cb6:	20 ff       	sbrs	r18, 0
    1cb8:	06 c0       	rjmp	.+12     	; 0x1cc6 <vfprintf+0x2f0>
    1cba:	5a 2c       	mov	r5, r10
    1cbc:	73 14       	cp	r7, r3
    1cbe:	18 f4       	brcc	.+6      	; 0x1cc6 <vfprintf+0x2f0>
    1cc0:	53 0c       	add	r5, r3
    1cc2:	57 18       	sub	r5, r7
    1cc4:	73 2c       	mov	r7, r3
    1cc6:	73 14       	cp	r7, r3
    1cc8:	68 f4       	brcc	.+26     	; 0x1ce4 <vfprintf+0x30e>
    1cca:	b7 01       	movw	r22, r14
    1ccc:	80 e2       	ldi	r24, 0x20	; 32
    1cce:	90 e0       	ldi	r25, 0x00	; 0
    1cd0:	2c 87       	std	Y+12, r18	; 0x0c
    1cd2:	0e 94 1c 0f 	call	0x1e38	; 0x1e38 <fputc>
    1cd6:	73 94       	inc	r7
    1cd8:	2c 85       	ldd	r18, Y+12	; 0x0c
    1cda:	f5 cf       	rjmp	.-22     	; 0x1cc6 <vfprintf+0x2f0>
    1cdc:	73 14       	cp	r7, r3
    1cde:	10 f4       	brcc	.+4      	; 0x1ce4 <vfprintf+0x30e>
    1ce0:	37 18       	sub	r3, r7
    1ce2:	01 c0       	rjmp	.+2      	; 0x1ce6 <vfprintf+0x310>
    1ce4:	31 2c       	mov	r3, r1
    1ce6:	24 ff       	sbrs	r18, 4
    1ce8:	12 c0       	rjmp	.+36     	; 0x1d0e <vfprintf+0x338>
    1cea:	b7 01       	movw	r22, r14
    1cec:	80 e3       	ldi	r24, 0x30	; 48
    1cee:	90 e0       	ldi	r25, 0x00	; 0
    1cf0:	2c 87       	std	Y+12, r18	; 0x0c
    1cf2:	0e 94 1c 0f 	call	0x1e38	; 0x1e38 <fputc>
    1cf6:	2c 85       	ldd	r18, Y+12	; 0x0c
    1cf8:	22 ff       	sbrs	r18, 2
    1cfa:	17 c0       	rjmp	.+46     	; 0x1d2a <vfprintf+0x354>
    1cfc:	21 ff       	sbrs	r18, 1
    1cfe:	03 c0       	rjmp	.+6      	; 0x1d06 <vfprintf+0x330>
    1d00:	88 e5       	ldi	r24, 0x58	; 88
    1d02:	90 e0       	ldi	r25, 0x00	; 0
    1d04:	02 c0       	rjmp	.+4      	; 0x1d0a <vfprintf+0x334>
    1d06:	88 e7       	ldi	r24, 0x78	; 120
    1d08:	90 e0       	ldi	r25, 0x00	; 0
    1d0a:	b7 01       	movw	r22, r14
    1d0c:	0c c0       	rjmp	.+24     	; 0x1d26 <vfprintf+0x350>
    1d0e:	82 2f       	mov	r24, r18
    1d10:	86 78       	andi	r24, 0x86	; 134
    1d12:	59 f0       	breq	.+22     	; 0x1d2a <vfprintf+0x354>
    1d14:	21 fd       	sbrc	r18, 1
    1d16:	02 c0       	rjmp	.+4      	; 0x1d1c <vfprintf+0x346>
    1d18:	80 e2       	ldi	r24, 0x20	; 32
    1d1a:	01 c0       	rjmp	.+2      	; 0x1d1e <vfprintf+0x348>
    1d1c:	8b e2       	ldi	r24, 0x2B	; 43
    1d1e:	27 fd       	sbrc	r18, 7
    1d20:	8d e2       	ldi	r24, 0x2D	; 45
    1d22:	b7 01       	movw	r22, r14
    1d24:	90 e0       	ldi	r25, 0x00	; 0
    1d26:	0e 94 1c 0f 	call	0x1e38	; 0x1e38 <fputc>
    1d2a:	a5 14       	cp	r10, r5
    1d2c:	38 f4       	brcc	.+14     	; 0x1d3c <vfprintf+0x366>
    1d2e:	b7 01       	movw	r22, r14
    1d30:	80 e3       	ldi	r24, 0x30	; 48
    1d32:	90 e0       	ldi	r25, 0x00	; 0
    1d34:	0e 94 1c 0f 	call	0x1e38	; 0x1e38 <fputc>
    1d38:	5a 94       	dec	r5
    1d3a:	f7 cf       	rjmp	.-18     	; 0x1d2a <vfprintf+0x354>
    1d3c:	aa 94       	dec	r10
    1d3e:	f4 01       	movw	r30, r8
    1d40:	ea 0d       	add	r30, r10
    1d42:	f1 1d       	adc	r31, r1
    1d44:	80 81       	ld	r24, Z
    1d46:	b7 01       	movw	r22, r14
    1d48:	90 e0       	ldi	r25, 0x00	; 0
    1d4a:	0e 94 1c 0f 	call	0x1e38	; 0x1e38 <fputc>
    1d4e:	a1 10       	cpse	r10, r1
    1d50:	f5 cf       	rjmp	.-22     	; 0x1d3c <vfprintf+0x366>
    1d52:	33 20       	and	r3, r3
    1d54:	09 f4       	brne	.+2      	; 0x1d58 <vfprintf+0x382>
    1d56:	51 ce       	rjmp	.-862    	; 0x19fa <vfprintf+0x24>
    1d58:	b7 01       	movw	r22, r14
    1d5a:	80 e2       	ldi	r24, 0x20	; 32
    1d5c:	90 e0       	ldi	r25, 0x00	; 0
    1d5e:	0e 94 1c 0f 	call	0x1e38	; 0x1e38 <fputc>
    1d62:	3a 94       	dec	r3
    1d64:	f6 cf       	rjmp	.-20     	; 0x1d52 <vfprintf+0x37c>
    1d66:	f7 01       	movw	r30, r14
    1d68:	86 81       	ldd	r24, Z+6	; 0x06
    1d6a:	97 81       	ldd	r25, Z+7	; 0x07
    1d6c:	02 c0       	rjmp	.+4      	; 0x1d72 <vfprintf+0x39c>
    1d6e:	8f ef       	ldi	r24, 0xFF	; 255
    1d70:	9f ef       	ldi	r25, 0xFF	; 255
    1d72:	2c 96       	adiw	r28, 0x0c	; 12
    1d74:	e2 e1       	ldi	r30, 0x12	; 18
    1d76:	0c 94 c8 0f 	jmp	0x1f90	; 0x1f90 <__epilogue_restores__>

00001d7a <__eerd_block_m32>:
    1d7a:	dc 01       	movw	r26, r24
    1d7c:	cb 01       	movw	r24, r22

00001d7e <__eerd_blraw_m32>:
    1d7e:	fc 01       	movw	r30, r24
    1d80:	e1 99       	sbic	0x1c, 1	; 28
    1d82:	fe cf       	rjmp	.-4      	; 0x1d80 <__eerd_blraw_m32+0x2>
    1d84:	06 c0       	rjmp	.+12     	; 0x1d92 <__eerd_blraw_m32+0x14>
    1d86:	ff bb       	out	0x1f, r31	; 31
    1d88:	ee bb       	out	0x1e, r30	; 30
    1d8a:	e0 9a       	sbi	0x1c, 0	; 28
    1d8c:	31 96       	adiw	r30, 0x01	; 1
    1d8e:	0d b2       	in	r0, 0x1d	; 29
    1d90:	0d 92       	st	X+, r0
    1d92:	41 50       	subi	r20, 0x01	; 1
    1d94:	50 40       	sbci	r21, 0x00	; 0
    1d96:	b8 f7       	brcc	.-18     	; 0x1d86 <__eerd_blraw_m32+0x8>
    1d98:	08 95       	ret

00001d9a <__eerd_byte_m32>:
    1d9a:	e1 99       	sbic	0x1c, 1	; 28
    1d9c:	fe cf       	rjmp	.-4      	; 0x1d9a <__eerd_byte_m32>
    1d9e:	9f bb       	out	0x1f, r25	; 31
    1da0:	8e bb       	out	0x1e, r24	; 30
    1da2:	e0 9a       	sbi	0x1c, 0	; 28
    1da4:	99 27       	eor	r25, r25
    1da6:	8d b3       	in	r24, 0x1d	; 29
    1da8:	08 95       	ret

00001daa <__eeupd_block_m32>:
    1daa:	dc 01       	movw	r26, r24
    1dac:	a4 0f       	add	r26, r20
    1dae:	b5 1f       	adc	r27, r21
    1db0:	41 50       	subi	r20, 0x01	; 1
    1db2:	50 40       	sbci	r21, 0x00	; 0
    1db4:	48 f0       	brcs	.+18     	; 0x1dc8 <__eeupd_block_m32+0x1e>
    1db6:	cb 01       	movw	r24, r22
    1db8:	84 0f       	add	r24, r20
    1dba:	95 1f       	adc	r25, r21
    1dbc:	2e 91       	ld	r18, -X
    1dbe:	0e 94 e6 0e 	call	0x1dcc	; 0x1dcc <__eeupd_r18_m32>
    1dc2:	41 50       	subi	r20, 0x01	; 1
    1dc4:	50 40       	sbci	r21, 0x00	; 0
    1dc6:	d0 f7       	brcc	.-12     	; 0x1dbc <__eeupd_block_m32+0x12>
    1dc8:	08 95       	ret

00001dca <__eeupd_byte_m32>:
    1dca:	26 2f       	mov	r18, r22

00001dcc <__eeupd_r18_m32>:
    1dcc:	e1 99       	sbic	0x1c, 1	; 28
    1dce:	fe cf       	rjmp	.-4      	; 0x1dcc <__eeupd_r18_m32>
    1dd0:	9f bb       	out	0x1f, r25	; 31
    1dd2:	8e bb       	out	0x1e, r24	; 30
    1dd4:	e0 9a       	sbi	0x1c, 0	; 28
    1dd6:	01 97       	sbiw	r24, 0x01	; 1
    1dd8:	0d b2       	in	r0, 0x1d	; 29
    1dda:	02 16       	cp	r0, r18
    1ddc:	31 f0       	breq	.+12     	; 0x1dea <__eeupd_r18_m32+0x1e>
    1dde:	2d bb       	out	0x1d, r18	; 29
    1de0:	0f b6       	in	r0, 0x3f	; 63
    1de2:	f8 94       	cli
    1de4:	e2 9a       	sbi	0x1c, 2	; 28
    1de6:	e1 9a       	sbi	0x1c, 1	; 28
    1de8:	0f be       	out	0x3f, r0	; 63
    1dea:	08 95       	ret

00001dec <strnlen_P>:
    1dec:	fc 01       	movw	r30, r24
    1dee:	05 90       	lpm	r0, Z+
    1df0:	61 50       	subi	r22, 0x01	; 1
    1df2:	70 40       	sbci	r23, 0x00	; 0
    1df4:	01 10       	cpse	r0, r1
    1df6:	d8 f7       	brcc	.-10     	; 0x1dee <strnlen_P+0x2>
    1df8:	80 95       	com	r24
    1dfa:	90 95       	com	r25
    1dfc:	8e 0f       	add	r24, r30
    1dfe:	9f 1f       	adc	r25, r31
    1e00:	08 95       	ret

00001e02 <strnlen>:
    1e02:	fc 01       	movw	r30, r24
    1e04:	61 50       	subi	r22, 0x01	; 1
    1e06:	70 40       	sbci	r23, 0x00	; 0
    1e08:	01 90       	ld	r0, Z+
    1e0a:	01 10       	cpse	r0, r1
    1e0c:	d8 f7       	brcc	.-10     	; 0x1e04 <strnlen+0x2>
    1e0e:	80 95       	com	r24
    1e10:	90 95       	com	r25
    1e12:	8e 0f       	add	r24, r30
    1e14:	9f 1f       	adc	r25, r31
    1e16:	08 95       	ret

00001e18 <strrev>:
    1e18:	dc 01       	movw	r26, r24
    1e1a:	fc 01       	movw	r30, r24
    1e1c:	67 2f       	mov	r22, r23
    1e1e:	71 91       	ld	r23, Z+
    1e20:	77 23       	and	r23, r23
    1e22:	e1 f7       	brne	.-8      	; 0x1e1c <strrev+0x4>
    1e24:	32 97       	sbiw	r30, 0x02	; 2
    1e26:	04 c0       	rjmp	.+8      	; 0x1e30 <strrev+0x18>
    1e28:	7c 91       	ld	r23, X
    1e2a:	6d 93       	st	X+, r22
    1e2c:	70 83       	st	Z, r23
    1e2e:	62 91       	ld	r22, -Z
    1e30:	ae 17       	cp	r26, r30
    1e32:	bf 07       	cpc	r27, r31
    1e34:	c8 f3       	brcs	.-14     	; 0x1e28 <strrev+0x10>
    1e36:	08 95       	ret

00001e38 <fputc>:
    1e38:	0f 93       	push	r16
    1e3a:	1f 93       	push	r17
    1e3c:	cf 93       	push	r28
    1e3e:	df 93       	push	r29
    1e40:	18 2f       	mov	r17, r24
    1e42:	09 2f       	mov	r16, r25
    1e44:	eb 01       	movw	r28, r22
    1e46:	8b 81       	ldd	r24, Y+3	; 0x03
    1e48:	81 fd       	sbrc	r24, 1
    1e4a:	03 c0       	rjmp	.+6      	; 0x1e52 <fputc+0x1a>
    1e4c:	8f ef       	ldi	r24, 0xFF	; 255
    1e4e:	9f ef       	ldi	r25, 0xFF	; 255
    1e50:	20 c0       	rjmp	.+64     	; 0x1e92 <fputc+0x5a>
    1e52:	82 ff       	sbrs	r24, 2
    1e54:	10 c0       	rjmp	.+32     	; 0x1e76 <fputc+0x3e>
    1e56:	4e 81       	ldd	r20, Y+6	; 0x06
    1e58:	5f 81       	ldd	r21, Y+7	; 0x07
    1e5a:	2c 81       	ldd	r18, Y+4	; 0x04
    1e5c:	3d 81       	ldd	r19, Y+5	; 0x05
    1e5e:	42 17       	cp	r20, r18
    1e60:	53 07       	cpc	r21, r19
    1e62:	7c f4       	brge	.+30     	; 0x1e82 <fputc+0x4a>
    1e64:	e8 81       	ld	r30, Y
    1e66:	f9 81       	ldd	r31, Y+1	; 0x01
    1e68:	9f 01       	movw	r18, r30
    1e6a:	2f 5f       	subi	r18, 0xFF	; 255
    1e6c:	3f 4f       	sbci	r19, 0xFF	; 255
    1e6e:	39 83       	std	Y+1, r19	; 0x01
    1e70:	28 83       	st	Y, r18
    1e72:	10 83       	st	Z, r17
    1e74:	06 c0       	rjmp	.+12     	; 0x1e82 <fputc+0x4a>
    1e76:	e8 85       	ldd	r30, Y+8	; 0x08
    1e78:	f9 85       	ldd	r31, Y+9	; 0x09
    1e7a:	81 2f       	mov	r24, r17
    1e7c:	09 95       	icall
    1e7e:	89 2b       	or	r24, r25
    1e80:	29 f7       	brne	.-54     	; 0x1e4c <fputc+0x14>
    1e82:	2e 81       	ldd	r18, Y+6	; 0x06
    1e84:	3f 81       	ldd	r19, Y+7	; 0x07
    1e86:	2f 5f       	subi	r18, 0xFF	; 255
    1e88:	3f 4f       	sbci	r19, 0xFF	; 255
    1e8a:	3f 83       	std	Y+7, r19	; 0x07
    1e8c:	2e 83       	std	Y+6, r18	; 0x06
    1e8e:	81 2f       	mov	r24, r17
    1e90:	90 2f       	mov	r25, r16
    1e92:	df 91       	pop	r29
    1e94:	cf 91       	pop	r28
    1e96:	1f 91       	pop	r17
    1e98:	0f 91       	pop	r16
    1e9a:	08 95       	ret

00001e9c <__ultoa_invert>:
    1e9c:	fa 01       	movw	r30, r20
    1e9e:	aa 27       	eor	r26, r26
    1ea0:	28 30       	cpi	r18, 0x08	; 8
    1ea2:	51 f1       	breq	.+84     	; 0x1ef8 <__ultoa_invert+0x5c>
    1ea4:	20 31       	cpi	r18, 0x10	; 16
    1ea6:	81 f1       	breq	.+96     	; 0x1f08 <__ultoa_invert+0x6c>
    1ea8:	e8 94       	clt
    1eaa:	6f 93       	push	r22
    1eac:	6e 7f       	andi	r22, 0xFE	; 254
    1eae:	6e 5f       	subi	r22, 0xFE	; 254
    1eb0:	7f 4f       	sbci	r23, 0xFF	; 255
    1eb2:	8f 4f       	sbci	r24, 0xFF	; 255
    1eb4:	9f 4f       	sbci	r25, 0xFF	; 255
    1eb6:	af 4f       	sbci	r26, 0xFF	; 255
    1eb8:	b1 e0       	ldi	r27, 0x01	; 1
    1eba:	3e d0       	rcall	.+124    	; 0x1f38 <__ultoa_invert+0x9c>
    1ebc:	b4 e0       	ldi	r27, 0x04	; 4
    1ebe:	3c d0       	rcall	.+120    	; 0x1f38 <__ultoa_invert+0x9c>
    1ec0:	67 0f       	add	r22, r23
    1ec2:	78 1f       	adc	r23, r24
    1ec4:	89 1f       	adc	r24, r25
    1ec6:	9a 1f       	adc	r25, r26
    1ec8:	a1 1d       	adc	r26, r1
    1eca:	68 0f       	add	r22, r24
    1ecc:	79 1f       	adc	r23, r25
    1ece:	8a 1f       	adc	r24, r26
    1ed0:	91 1d       	adc	r25, r1
    1ed2:	a1 1d       	adc	r26, r1
    1ed4:	6a 0f       	add	r22, r26
    1ed6:	71 1d       	adc	r23, r1
    1ed8:	81 1d       	adc	r24, r1
    1eda:	91 1d       	adc	r25, r1
    1edc:	a1 1d       	adc	r26, r1
    1ede:	20 d0       	rcall	.+64     	; 0x1f20 <__ultoa_invert+0x84>
    1ee0:	09 f4       	brne	.+2      	; 0x1ee4 <__ultoa_invert+0x48>
    1ee2:	68 94       	set
    1ee4:	3f 91       	pop	r19
    1ee6:	2a e0       	ldi	r18, 0x0A	; 10
    1ee8:	26 9f       	mul	r18, r22
    1eea:	11 24       	eor	r1, r1
    1eec:	30 19       	sub	r19, r0
    1eee:	30 5d       	subi	r19, 0xD0	; 208
    1ef0:	31 93       	st	Z+, r19
    1ef2:	de f6       	brtc	.-74     	; 0x1eaa <__ultoa_invert+0xe>
    1ef4:	cf 01       	movw	r24, r30
    1ef6:	08 95       	ret
    1ef8:	46 2f       	mov	r20, r22
    1efa:	47 70       	andi	r20, 0x07	; 7
    1efc:	40 5d       	subi	r20, 0xD0	; 208
    1efe:	41 93       	st	Z+, r20
    1f00:	b3 e0       	ldi	r27, 0x03	; 3
    1f02:	0f d0       	rcall	.+30     	; 0x1f22 <__ultoa_invert+0x86>
    1f04:	c9 f7       	brne	.-14     	; 0x1ef8 <__ultoa_invert+0x5c>
    1f06:	f6 cf       	rjmp	.-20     	; 0x1ef4 <__ultoa_invert+0x58>
    1f08:	46 2f       	mov	r20, r22
    1f0a:	4f 70       	andi	r20, 0x0F	; 15
    1f0c:	40 5d       	subi	r20, 0xD0	; 208
    1f0e:	4a 33       	cpi	r20, 0x3A	; 58
    1f10:	18 f0       	brcs	.+6      	; 0x1f18 <__ultoa_invert+0x7c>
    1f12:	49 5d       	subi	r20, 0xD9	; 217
    1f14:	31 fd       	sbrc	r19, 1
    1f16:	40 52       	subi	r20, 0x20	; 32
    1f18:	41 93       	st	Z+, r20
    1f1a:	02 d0       	rcall	.+4      	; 0x1f20 <__ultoa_invert+0x84>
    1f1c:	a9 f7       	brne	.-22     	; 0x1f08 <__ultoa_invert+0x6c>
    1f1e:	ea cf       	rjmp	.-44     	; 0x1ef4 <__ultoa_invert+0x58>
    1f20:	b4 e0       	ldi	r27, 0x04	; 4
    1f22:	a6 95       	lsr	r26
    1f24:	97 95       	ror	r25
    1f26:	87 95       	ror	r24
    1f28:	77 95       	ror	r23
    1f2a:	67 95       	ror	r22
    1f2c:	ba 95       	dec	r27
    1f2e:	c9 f7       	brne	.-14     	; 0x1f22 <__ultoa_invert+0x86>
    1f30:	00 97       	sbiw	r24, 0x00	; 0
    1f32:	61 05       	cpc	r22, r1
    1f34:	71 05       	cpc	r23, r1
    1f36:	08 95       	ret
    1f38:	9b 01       	movw	r18, r22
    1f3a:	ac 01       	movw	r20, r24
    1f3c:	0a 2e       	mov	r0, r26
    1f3e:	06 94       	lsr	r0
    1f40:	57 95       	ror	r21
    1f42:	47 95       	ror	r20
    1f44:	37 95       	ror	r19
    1f46:	27 95       	ror	r18
    1f48:	ba 95       	dec	r27
    1f4a:	c9 f7       	brne	.-14     	; 0x1f3e <__ultoa_invert+0xa2>
    1f4c:	62 0f       	add	r22, r18
    1f4e:	73 1f       	adc	r23, r19
    1f50:	84 1f       	adc	r24, r20
    1f52:	95 1f       	adc	r25, r21
    1f54:	a0 1d       	adc	r26, r0
    1f56:	08 95       	ret

00001f58 <__prologue_saves__>:
    1f58:	2f 92       	push	r2
    1f5a:	3f 92       	push	r3
    1f5c:	4f 92       	push	r4
    1f5e:	5f 92       	push	r5
    1f60:	6f 92       	push	r6
    1f62:	7f 92       	push	r7
    1f64:	8f 92       	push	r8
    1f66:	9f 92       	push	r9
    1f68:	af 92       	push	r10
    1f6a:	bf 92       	push	r11
    1f6c:	cf 92       	push	r12
    1f6e:	df 92       	push	r13
    1f70:	ef 92       	push	r14
    1f72:	ff 92       	push	r15
    1f74:	0f 93       	push	r16
    1f76:	1f 93       	push	r17
    1f78:	cf 93       	push	r28
    1f7a:	df 93       	push	r29
    1f7c:	cd b7       	in	r28, 0x3d	; 61
    1f7e:	de b7       	in	r29, 0x3e	; 62
    1f80:	ca 1b       	sub	r28, r26
    1f82:	db 0b       	sbc	r29, r27
    1f84:	0f b6       	in	r0, 0x3f	; 63
    1f86:	f8 94       	cli
    1f88:	de bf       	out	0x3e, r29	; 62
    1f8a:	0f be       	out	0x3f, r0	; 63
    1f8c:	cd bf       	out	0x3d, r28	; 61
    1f8e:	09 94       	ijmp

00001f90 <__epilogue_restores__>:
    1f90:	2a 88       	ldd	r2, Y+18	; 0x12
    1f92:	39 88       	ldd	r3, Y+17	; 0x11
    1f94:	48 88       	ldd	r4, Y+16	; 0x10
    1f96:	5f 84       	ldd	r5, Y+15	; 0x0f
    1f98:	6e 84       	ldd	r6, Y+14	; 0x0e
    1f9a:	7d 84       	ldd	r7, Y+13	; 0x0d
    1f9c:	8c 84       	ldd	r8, Y+12	; 0x0c
    1f9e:	9b 84       	ldd	r9, Y+11	; 0x0b
    1fa0:	aa 84       	ldd	r10, Y+10	; 0x0a
    1fa2:	b9 84       	ldd	r11, Y+9	; 0x09
    1fa4:	c8 84       	ldd	r12, Y+8	; 0x08
    1fa6:	df 80       	ldd	r13, Y+7	; 0x07
    1fa8:	ee 80       	ldd	r14, Y+6	; 0x06
    1faa:	fd 80       	ldd	r15, Y+5	; 0x05
    1fac:	0c 81       	ldd	r16, Y+4	; 0x04
    1fae:	1b 81       	ldd	r17, Y+3	; 0x03
    1fb0:	aa 81       	ldd	r26, Y+2	; 0x02
    1fb2:	b9 81       	ldd	r27, Y+1	; 0x01
    1fb4:	ce 0f       	add	r28, r30
    1fb6:	d1 1d       	adc	r29, r1
    1fb8:	0f b6       	in	r0, 0x3f	; 63
    1fba:	f8 94       	cli
    1fbc:	de bf       	out	0x3e, r29	; 62
    1fbe:	0f be       	out	0x3f, r0	; 63
    1fc0:	cd bf       	out	0x3d, r28	; 61
    1fc2:	ed 01       	movw	r28, r26
    1fc4:	08 95       	ret

00001fc6 <_exit>:
    1fc6:	f8 94       	cli

00001fc8 <__stop_program>:
    1fc8:	ff cf       	rjmp	.-2      	; 0x1fc8 <__stop_program>
